
main.elf:     file format elf32-littlearm


Disassembly of section .text:

00000000 <__text_start>:
       0:	10000800 	.word	0x10000800
       4:	00000051 	.word	0x00000051
	...

00000020 <_Z1fi>:
      20:	b508      	push	{r3, lr}
      22:	f002 fda5 	bl	2b70 <__aeabi_i2d>
      26:	f000 f83f 	bl	a8 <sin>
      2a:	4b03      	ldr	r3, [pc, #12]	; (38 <_Z1fi+0x18>)
      2c:	2200      	movs	r2, #0
      2e:	f001 faff 	bl	1630 <__aeabi_dcmpgt>
      32:	1e43      	subs	r3, r0, #1
      34:	4198      	sbcs	r0, r3
      36:	bd08      	pop	{r3, pc}
      38:	3fe00000 	.word	0x3fe00000

0000003c <main>:
      3c:	b507      	push	{r0, r1, r2, lr}
      3e:	200c      	movs	r0, #12
      40:	f7ff ffee 	bl	20 <_Z1fi>
      44:	466b      	mov	r3, sp
      46:	71d8      	strb	r0, [r3, #7]
      48:	3307      	adds	r3, #7
      4a:	2000      	movs	r0, #0
      4c:	781b      	ldrb	r3, [r3, #0]
      4e:	bd0e      	pop	{r1, r2, r3, pc}

00000050 <__startup>:
      50:	2200      	movs	r2, #0
      52:	4910      	ldr	r1, [pc, #64]	; (94 <__startup+0x44>)
      54:	4b10      	ldr	r3, [pc, #64]	; (98 <__startup+0x48>)
      56:	b510      	push	{r4, lr}
      58:	1a5b      	subs	r3, r3, r1
      5a:	089b      	lsrs	r3, r3, #2
      5c:	3301      	adds	r3, #1
      5e:	009b      	lsls	r3, r3, #2
      60:	1d10      	adds	r0, r2, #4
      62:	4298      	cmp	r0, r3
      64:	d004      	beq.n	70 <__startup+0x20>
      66:	2400      	movs	r4, #0
      68:	188a      	adds	r2, r1, r2
      6a:	6014      	str	r4, [r2, #0]
      6c:	1c02      	adds	r2, r0, #0
      6e:	e7f7      	b.n	60 <__startup+0x10>
      70:	2200      	movs	r2, #0
      72:	490a      	ldr	r1, [pc, #40]	; (9c <__startup+0x4c>)
      74:	4b0a      	ldr	r3, [pc, #40]	; (a0 <__startup+0x50>)
      76:	1a5b      	subs	r3, r3, r1
      78:	089b      	lsrs	r3, r3, #2
      7a:	3301      	adds	r3, #1
      7c:	009b      	lsls	r3, r3, #2
      7e:	1d10      	adds	r0, r2, #4
      80:	4298      	cmp	r0, r3
      82:	d004      	beq.n	8e <__startup+0x3e>
      84:	4c07      	ldr	r4, [pc, #28]	; (a4 <__startup+0x54>)
      86:	58a4      	ldr	r4, [r4, r2]
      88:	508c      	str	r4, [r1, r2]
      8a:	1c02      	adds	r2, r0, #0
      8c:	e7f7      	b.n	7e <__startup+0x2e>
      8e:	f7ff ffd5 	bl	3c <main>
      92:	e7fe      	b.n	92 <__startup+0x42>
      94:	10000000 	.word	0x10000000
      98:	10000000 	.word	0x10000000
      9c:	10000000 	.word	0x10000000
      a0:	10000000 	.word	0x10000000
      a4:	00002e40 	.word	0x00002e40

000000a8 <sin>:
      a8:	b530      	push	{r4, r5, lr}
      aa:	4a25      	ldr	r2, [pc, #148]	; (140 <sin+0x98>)
      ac:	004b      	lsls	r3, r1, #1
      ae:	b087      	sub	sp, #28
      b0:	1c05      	adds	r5, r0, #0
      b2:	1c0c      	adds	r4, r1, #0
      b4:	085b      	lsrs	r3, r3, #1
      b6:	4293      	cmp	r3, r2
      b8:	dd1e      	ble.n	f8 <sin+0x50>
      ba:	4a22      	ldr	r2, [pc, #136]	; (144 <sin+0x9c>)
      bc:	4293      	cmp	r3, r2
      be:	dd05      	ble.n	cc <sin+0x24>
      c0:	1c2a      	adds	r2, r5, #0
      c2:	1c23      	adds	r3, r4, #0
      c4:	f002 f9a4 	bl	2410 <__aeabi_dsub>
      c8:	b007      	add	sp, #28
      ca:	bd30      	pop	{r4, r5, pc}
      cc:	aa02      	add	r2, sp, #8
      ce:	f000 f83b 	bl	148 <__ieee754_rem_pio2>
      d2:	2303      	movs	r3, #3
      d4:	4018      	ands	r0, r3
      d6:	2801      	cmp	r0, #1
      d8:	d022      	beq.n	120 <sin+0x78>
      da:	2802      	cmp	r0, #2
      dc:	d013      	beq.n	106 <sin+0x5e>
      de:	2800      	cmp	r0, #0
      e0:	d025      	beq.n	12e <sin+0x86>
      e2:	9a04      	ldr	r2, [sp, #16]
      e4:	9b05      	ldr	r3, [sp, #20]
      e6:	9802      	ldr	r0, [sp, #8]
      e8:	9903      	ldr	r1, [sp, #12]
      ea:	f000 fa45 	bl	578 <__kernel_cos>
      ee:	2380      	movs	r3, #128	; 0x80
      f0:	061b      	lsls	r3, r3, #24
      f2:	469c      	mov	ip, r3
      f4:	4461      	add	r1, ip
      f6:	e7e7      	b.n	c8 <sin+0x20>
      f8:	2300      	movs	r3, #0
      fa:	2200      	movs	r2, #0
      fc:	9300      	str	r3, [sp, #0]
      fe:	2300      	movs	r3, #0
     100:	f000 ff9c 	bl	103c <__kernel_sin>
     104:	e7e0      	b.n	c8 <sin+0x20>
     106:	2401      	movs	r4, #1
     108:	9a04      	ldr	r2, [sp, #16]
     10a:	9b05      	ldr	r3, [sp, #20]
     10c:	9802      	ldr	r0, [sp, #8]
     10e:	9903      	ldr	r1, [sp, #12]
     110:	9400      	str	r4, [sp, #0]
     112:	f000 ff93 	bl	103c <__kernel_sin>
     116:	2380      	movs	r3, #128	; 0x80
     118:	061b      	lsls	r3, r3, #24
     11a:	469c      	mov	ip, r3
     11c:	4461      	add	r1, ip
     11e:	e7d3      	b.n	c8 <sin+0x20>
     120:	9a04      	ldr	r2, [sp, #16]
     122:	9b05      	ldr	r3, [sp, #20]
     124:	9802      	ldr	r0, [sp, #8]
     126:	9903      	ldr	r1, [sp, #12]
     128:	f000 fa26 	bl	578 <__kernel_cos>
     12c:	e7cc      	b.n	c8 <sin+0x20>
     12e:	2401      	movs	r4, #1
     130:	9802      	ldr	r0, [sp, #8]
     132:	9903      	ldr	r1, [sp, #12]
     134:	9a04      	ldr	r2, [sp, #16]
     136:	9b05      	ldr	r3, [sp, #20]
     138:	9400      	str	r4, [sp, #0]
     13a:	f000 ff7f 	bl	103c <__kernel_sin>
     13e:	e7c3      	b.n	c8 <sin+0x20>
     140:	3fe921fb 	.word	0x3fe921fb
     144:	7fefffff 	.word	0x7fefffff

00000148 <__ieee754_rem_pio2>:
     148:	b5f0      	push	{r4, r5, r6, r7, lr}
     14a:	4656      	mov	r6, sl
     14c:	465f      	mov	r7, fp
     14e:	464d      	mov	r5, r9
     150:	b4e0      	push	{r5, r6, r7}
     152:	004b      	lsls	r3, r1, #1
     154:	085e      	lsrs	r6, r3, #1
     156:	4bd4      	ldr	r3, [pc, #848]	; (4a8 <__ieee754_rem_pio2+0x360>)
     158:	b090      	sub	sp, #64	; 0x40
     15a:	468a      	mov	sl, r1
     15c:	429e      	cmp	r6, r3
     15e:	dc00      	bgt.n	162 <__ieee754_rem_pio2+0x1a>
     160:	e089      	b.n	276 <__ieee754_rem_pio2+0x12e>
     162:	4bd2      	ldr	r3, [pc, #840]	; (4ac <__ieee754_rem_pio2+0x364>)
     164:	4691      	mov	r9, r2
     166:	1c0c      	adds	r4, r1, #0
     168:	1c05      	adds	r5, r0, #0
     16a:	429e      	cmp	r6, r3
     16c:	dc22      	bgt.n	1b4 <__ieee754_rem_pio2+0x6c>
     16e:	4ad0      	ldr	r2, [pc, #832]	; (4b0 <__ieee754_rem_pio2+0x368>)
     170:	2c00      	cmp	r4, #0
     172:	dc00      	bgt.n	176 <__ieee754_rem_pio2+0x2e>
     174:	e1be      	b.n	4f4 <__ieee754_rem_pio2+0x3ac>
     176:	4bcf      	ldr	r3, [pc, #828]	; (4b4 <__ieee754_rem_pio2+0x36c>)
     178:	f002 f94a 	bl	2410 <__aeabi_dsub>
     17c:	4bcd      	ldr	r3, [pc, #820]	; (4b4 <__ieee754_rem_pio2+0x36c>)
     17e:	1c04      	adds	r4, r0, #0
     180:	1c0d      	adds	r5, r1, #0
     182:	429e      	cmp	r6, r3
     184:	d100      	bne.n	188 <__ieee754_rem_pio2+0x40>
     186:	e090      	b.n	2aa <__ieee754_rem_pio2+0x162>
     188:	4acb      	ldr	r2, [pc, #812]	; (4b8 <__ieee754_rem_pio2+0x370>)
     18a:	4bcc      	ldr	r3, [pc, #816]	; (4bc <__ieee754_rem_pio2+0x374>)
     18c:	f002 f940 	bl	2410 <__aeabi_dsub>
     190:	1c02      	adds	r2, r0, #0
     192:	1c0b      	adds	r3, r1, #0
     194:	4649      	mov	r1, r9
     196:	1c20      	adds	r0, r4, #0
     198:	600a      	str	r2, [r1, #0]
     19a:	604b      	str	r3, [r1, #4]
     19c:	1c29      	adds	r1, r5, #0
     19e:	f002 f937 	bl	2410 <__aeabi_dsub>
     1a2:	4bc6      	ldr	r3, [pc, #792]	; (4bc <__ieee754_rem_pio2+0x374>)
     1a4:	4ac4      	ldr	r2, [pc, #784]	; (4b8 <__ieee754_rem_pio2+0x370>)
     1a6:	f002 f933 	bl	2410 <__aeabi_dsub>
     1aa:	464b      	mov	r3, r9
     1ac:	6098      	str	r0, [r3, #8]
     1ae:	60d9      	str	r1, [r3, #12]
     1b0:	2001      	movs	r0, #1
     1b2:	e069      	b.n	288 <__ieee754_rem_pio2+0x140>
     1b4:	4bc2      	ldr	r3, [pc, #776]	; (4c0 <__ieee754_rem_pio2+0x378>)
     1b6:	429e      	cmp	r6, r3
     1b8:	dc00      	bgt.n	1bc <__ieee754_rem_pio2+0x74>
     1ba:	e093      	b.n	2e4 <__ieee754_rem_pio2+0x19c>
     1bc:	4bc1      	ldr	r3, [pc, #772]	; (4c4 <__ieee754_rem_pio2+0x37c>)
     1be:	429e      	cmp	r6, r3
     1c0:	dc68      	bgt.n	294 <__ieee754_rem_pio2+0x14c>
     1c2:	49c1      	ldr	r1, [pc, #772]	; (4c8 <__ieee754_rem_pio2+0x380>)
     1c4:	1532      	asrs	r2, r6, #20
     1c6:	468b      	mov	fp, r1
     1c8:	4493      	add	fp, r2
     1ca:	465b      	mov	r3, fp
     1cc:	051b      	lsls	r3, r3, #20
     1ce:	1af5      	subs	r5, r6, r3
     1d0:	1c29      	adds	r1, r5, #0
     1d2:	1c04      	adds	r4, r0, #0
     1d4:	f002 fc96 	bl	2b04 <__aeabi_d2iz>
     1d8:	f002 fcca 	bl	2b70 <__aeabi_i2d>
     1dc:	1c02      	adds	r2, r0, #0
     1de:	1c0b      	adds	r3, r1, #0
     1e0:	1c20      	adds	r0, r4, #0
     1e2:	1c29      	adds	r1, r5, #0
     1e4:	920a      	str	r2, [sp, #40]	; 0x28
     1e6:	930b      	str	r3, [sp, #44]	; 0x2c
     1e8:	f002 f912 	bl	2410 <__aeabi_dsub>
     1ec:	2200      	movs	r2, #0
     1ee:	4bb7      	ldr	r3, [pc, #732]	; (4cc <__ieee754_rem_pio2+0x384>)
     1f0:	f001 fe74 	bl	1edc <__aeabi_dmul>
     1f4:	1c0f      	adds	r7, r1, #0
     1f6:	1c06      	adds	r6, r0, #0
     1f8:	f002 fc84 	bl	2b04 <__aeabi_d2iz>
     1fc:	f002 fcb8 	bl	2b70 <__aeabi_i2d>
     200:	1c04      	adds	r4, r0, #0
     202:	1c0d      	adds	r5, r1, #0
     204:	1c22      	adds	r2, r4, #0
     206:	1c2b      	adds	r3, r5, #0
     208:	1c30      	adds	r0, r6, #0
     20a:	1c39      	adds	r1, r7, #0
     20c:	940c      	str	r4, [sp, #48]	; 0x30
     20e:	950d      	str	r5, [sp, #52]	; 0x34
     210:	f002 f8fe 	bl	2410 <__aeabi_dsub>
     214:	2200      	movs	r2, #0
     216:	4bad      	ldr	r3, [pc, #692]	; (4cc <__ieee754_rem_pio2+0x384>)
     218:	f001 fe60 	bl	1edc <__aeabi_dmul>
     21c:	2200      	movs	r2, #0
     21e:	2300      	movs	r3, #0
     220:	900e      	str	r0, [sp, #56]	; 0x38
     222:	910f      	str	r1, [sp, #60]	; 0x3c
     224:	f001 f9ea 	bl	15fc <__aeabi_dcmpeq>
     228:	2800      	cmp	r0, #0
     22a:	d100      	bne.n	22e <__ieee754_rem_pio2+0xe6>
     22c:	e181      	b.n	532 <__ieee754_rem_pio2+0x3ea>
     22e:	2300      	movs	r3, #0
     230:	2200      	movs	r2, #0
     232:	1c20      	adds	r0, r4, #0
     234:	1c29      	adds	r1, r5, #0
     236:	f001 f9e1 	bl	15fc <__aeabi_dcmpeq>
     23a:	2202      	movs	r2, #2
     23c:	1e43      	subs	r3, r0, #1
     23e:	4198      	sbcs	r0, r3
     240:	1a13      	subs	r3, r2, r0
     242:	2202      	movs	r2, #2
     244:	9200      	str	r2, [sp, #0]
     246:	4aa2      	ldr	r2, [pc, #648]	; (4d0 <__ieee754_rem_pio2+0x388>)
     248:	a80a      	add	r0, sp, #40	; 0x28
     24a:	9201      	str	r2, [sp, #4]
     24c:	4649      	mov	r1, r9
     24e:	465a      	mov	r2, fp
     250:	f000 faac 	bl	7ac <__kernel_rem_pio2>
     254:	4653      	mov	r3, sl
     256:	2b00      	cmp	r3, #0
     258:	da16      	bge.n	288 <__ieee754_rem_pio2+0x140>
     25a:	2280      	movs	r2, #128	; 0x80
     25c:	464b      	mov	r3, r9
     25e:	0612      	lsls	r2, r2, #24
     260:	4694      	mov	ip, r2
     262:	464a      	mov	r2, r9
     264:	685b      	ldr	r3, [r3, #4]
     266:	4240      	negs	r0, r0
     268:	4463      	add	r3, ip
     26a:	6053      	str	r3, [r2, #4]
     26c:	68d3      	ldr	r3, [r2, #12]
     26e:	464a      	mov	r2, r9
     270:	4463      	add	r3, ip
     272:	60d3      	str	r3, [r2, #12]
     274:	e008      	b.n	288 <__ieee754_rem_pio2+0x140>
     276:	1c04      	adds	r4, r0, #0
     278:	1c0d      	adds	r5, r1, #0
     27a:	2000      	movs	r0, #0
     27c:	2100      	movs	r1, #0
     27e:	6090      	str	r0, [r2, #8]
     280:	60d1      	str	r1, [r2, #12]
     282:	2000      	movs	r0, #0
     284:	6014      	str	r4, [r2, #0]
     286:	6055      	str	r5, [r2, #4]
     288:	b010      	add	sp, #64	; 0x40
     28a:	bc1c      	pop	{r2, r3, r4}
     28c:	4691      	mov	r9, r2
     28e:	469a      	mov	sl, r3
     290:	46a3      	mov	fp, r4
     292:	bdf0      	pop	{r4, r5, r6, r7, pc}
     294:	4653      	mov	r3, sl
     296:	1c2a      	adds	r2, r5, #0
     298:	f002 f8ba 	bl	2410 <__aeabi_dsub>
     29c:	464b      	mov	r3, r9
     29e:	6098      	str	r0, [r3, #8]
     2a0:	60d9      	str	r1, [r3, #12]
     2a2:	6018      	str	r0, [r3, #0]
     2a4:	6059      	str	r1, [r3, #4]
     2a6:	2000      	movs	r0, #0
     2a8:	e7ee      	b.n	288 <__ieee754_rem_pio2+0x140>
     2aa:	22d3      	movs	r2, #211	; 0xd3
     2ac:	4b83      	ldr	r3, [pc, #524]	; (4bc <__ieee754_rem_pio2+0x374>)
     2ae:	0552      	lsls	r2, r2, #21
     2b0:	f002 f8ae 	bl	2410 <__aeabi_dsub>
     2b4:	4a87      	ldr	r2, [pc, #540]	; (4d4 <__ieee754_rem_pio2+0x38c>)
     2b6:	4b88      	ldr	r3, [pc, #544]	; (4d8 <__ieee754_rem_pio2+0x390>)
     2b8:	1c04      	adds	r4, r0, #0
     2ba:	1c0d      	adds	r5, r1, #0
     2bc:	f002 f8a8 	bl	2410 <__aeabi_dsub>
     2c0:	1c02      	adds	r2, r0, #0
     2c2:	1c0b      	adds	r3, r1, #0
     2c4:	4649      	mov	r1, r9
     2c6:	1c20      	adds	r0, r4, #0
     2c8:	600a      	str	r2, [r1, #0]
     2ca:	604b      	str	r3, [r1, #4]
     2cc:	1c29      	adds	r1, r5, #0
     2ce:	f002 f89f 	bl	2410 <__aeabi_dsub>
     2d2:	4b81      	ldr	r3, [pc, #516]	; (4d8 <__ieee754_rem_pio2+0x390>)
     2d4:	4a7f      	ldr	r2, [pc, #508]	; (4d4 <__ieee754_rem_pio2+0x38c>)
     2d6:	f002 f89b 	bl	2410 <__aeabi_dsub>
     2da:	464b      	mov	r3, r9
     2dc:	6098      	str	r0, [r3, #8]
     2de:	60d9      	str	r1, [r3, #12]
     2e0:	2001      	movs	r0, #1
     2e2:	e7d1      	b.n	288 <__ieee754_rem_pio2+0x140>
     2e4:	f000 ff5a 	bl	119c <fabs>
     2e8:	4a7c      	ldr	r2, [pc, #496]	; (4dc <__ieee754_rem_pio2+0x394>)
     2ea:	4b7d      	ldr	r3, [pc, #500]	; (4e0 <__ieee754_rem_pio2+0x398>)
     2ec:	1c04      	adds	r4, r0, #0
     2ee:	1c0d      	adds	r5, r1, #0
     2f0:	f001 fdf4 	bl	1edc <__aeabi_dmul>
     2f4:	2200      	movs	r2, #0
     2f6:	4b7b      	ldr	r3, [pc, #492]	; (4e4 <__ieee754_rem_pio2+0x39c>)
     2f8:	f001 f9ae 	bl	1658 <__aeabi_dadd>
     2fc:	f002 fc02 	bl	2b04 <__aeabi_d2iz>
     300:	1c07      	adds	r7, r0, #0
     302:	f002 fc35 	bl	2b70 <__aeabi_i2d>
     306:	4a6a      	ldr	r2, [pc, #424]	; (4b0 <__ieee754_rem_pio2+0x368>)
     308:	4b6a      	ldr	r3, [pc, #424]	; (4b4 <__ieee754_rem_pio2+0x36c>)
     30a:	9004      	str	r0, [sp, #16]
     30c:	9105      	str	r1, [sp, #20]
     30e:	f001 fde5 	bl	1edc <__aeabi_dmul>
     312:	1c02      	adds	r2, r0, #0
     314:	1c0b      	adds	r3, r1, #0
     316:	1c20      	adds	r0, r4, #0
     318:	1c29      	adds	r1, r5, #0
     31a:	f002 f879 	bl	2410 <__aeabi_dsub>
     31e:	4a66      	ldr	r2, [pc, #408]	; (4b8 <__ieee754_rem_pio2+0x370>)
     320:	9002      	str	r0, [sp, #8]
     322:	9103      	str	r1, [sp, #12]
     324:	9804      	ldr	r0, [sp, #16]
     326:	9905      	ldr	r1, [sp, #20]
     328:	4b64      	ldr	r3, [pc, #400]	; (4bc <__ieee754_rem_pio2+0x374>)
     32a:	f001 fdd7 	bl	1edc <__aeabi_dmul>
     32e:	9006      	str	r0, [sp, #24]
     330:	9107      	str	r1, [sp, #28]
     332:	9802      	ldr	r0, [sp, #8]
     334:	9903      	ldr	r1, [sp, #12]
     336:	2f1f      	cmp	r7, #31
     338:	dc33      	bgt.n	3a2 <__ieee754_rem_pio2+0x25a>
     33a:	1e7b      	subs	r3, r7, #1
     33c:	4a6a      	ldr	r2, [pc, #424]	; (4e8 <__ieee754_rem_pio2+0x3a0>)
     33e:	009b      	lsls	r3, r3, #2
     340:	589b      	ldr	r3, [r3, r2]
     342:	42b3      	cmp	r3, r6
     344:	d02d      	beq.n	3a2 <__ieee754_rem_pio2+0x25a>
     346:	9a06      	ldr	r2, [sp, #24]
     348:	9b07      	ldr	r3, [sp, #28]
     34a:	f002 f861 	bl	2410 <__aeabi_dsub>
     34e:	1c0b      	adds	r3, r1, #0
     350:	1c0c      	adds	r4, r1, #0
     352:	1c02      	adds	r2, r0, #0
     354:	4649      	mov	r1, r9
     356:	1c05      	adds	r5, r0, #0
     358:	600a      	str	r2, [r1, #0]
     35a:	604b      	str	r3, [r1, #4]
     35c:	9802      	ldr	r0, [sp, #8]
     35e:	9903      	ldr	r1, [sp, #12]
     360:	1c2a      	adds	r2, r5, #0
     362:	1c23      	adds	r3, r4, #0
     364:	f002 f854 	bl	2410 <__aeabi_dsub>
     368:	9a06      	ldr	r2, [sp, #24]
     36a:	9b07      	ldr	r3, [sp, #28]
     36c:	f002 f850 	bl	2410 <__aeabi_dsub>
     370:	1c06      	adds	r6, r0, #0
     372:	1c0b      	adds	r3, r1, #0
     374:	4648      	mov	r0, r9
     376:	1c32      	adds	r2, r6, #0
     378:	6082      	str	r2, [r0, #8]
     37a:	60c3      	str	r3, [r0, #12]
     37c:	4653      	mov	r3, sl
     37e:	1c38      	adds	r0, r7, #0
     380:	2b00      	cmp	r3, #0
     382:	db00      	blt.n	386 <__ieee754_rem_pio2+0x23e>
     384:	e780      	b.n	288 <__ieee754_rem_pio2+0x140>
     386:	464b      	mov	r3, r9
     388:	601d      	str	r5, [r3, #0]
     38a:	2380      	movs	r3, #128	; 0x80
     38c:	061b      	lsls	r3, r3, #24
     38e:	469c      	mov	ip, r3
     390:	464b      	mov	r3, r9
     392:	4464      	add	r4, ip
     394:	605c      	str	r4, [r3, #4]
     396:	609e      	str	r6, [r3, #8]
     398:	464b      	mov	r3, r9
     39a:	4461      	add	r1, ip
     39c:	60d9      	str	r1, [r3, #12]
     39e:	4278      	negs	r0, r7
     3a0:	e772      	b.n	288 <__ieee754_rem_pio2+0x140>
     3a2:	9a06      	ldr	r2, [sp, #24]
     3a4:	9b07      	ldr	r3, [sp, #28]
     3a6:	f002 f833 	bl	2410 <__aeabi_dsub>
     3aa:	1c0b      	adds	r3, r1, #0
     3ac:	1c0c      	adds	r4, r1, #0
     3ae:	1c02      	adds	r2, r0, #0
     3b0:	4649      	mov	r1, r9
     3b2:	600a      	str	r2, [r1, #0]
     3b4:	604b      	str	r3, [r1, #4]
     3b6:	0063      	lsls	r3, r4, #1
     3b8:	1536      	asrs	r6, r6, #20
     3ba:	0d5b      	lsrs	r3, r3, #21
     3bc:	1c05      	adds	r5, r0, #0
     3be:	1af3      	subs	r3, r6, r3
     3c0:	2b10      	cmp	r3, #16
     3c2:	ddcb      	ble.n	35c <__ieee754_rem_pio2+0x214>
     3c4:	9804      	ldr	r0, [sp, #16]
     3c6:	9905      	ldr	r1, [sp, #20]
     3c8:	22d3      	movs	r2, #211	; 0xd3
     3ca:	4b3c      	ldr	r3, [pc, #240]	; (4bc <__ieee754_rem_pio2+0x374>)
     3cc:	0552      	lsls	r2, r2, #21
     3ce:	f001 fd85 	bl	1edc <__aeabi_dmul>
     3d2:	1c04      	adds	r4, r0, #0
     3d4:	1c0d      	adds	r5, r1, #0
     3d6:	9802      	ldr	r0, [sp, #8]
     3d8:	9903      	ldr	r1, [sp, #12]
     3da:	1c22      	adds	r2, r4, #0
     3dc:	1c2b      	adds	r3, r5, #0
     3de:	f002 f817 	bl	2410 <__aeabi_dsub>
     3e2:	1c02      	adds	r2, r0, #0
     3e4:	1c0b      	adds	r3, r1, #0
     3e6:	9802      	ldr	r0, [sp, #8]
     3e8:	9903      	ldr	r1, [sp, #12]
     3ea:	9208      	str	r2, [sp, #32]
     3ec:	9309      	str	r3, [sp, #36]	; 0x24
     3ee:	f002 f80f 	bl	2410 <__aeabi_dsub>
     3f2:	1c22      	adds	r2, r4, #0
     3f4:	1c2b      	adds	r3, r5, #0
     3f6:	f002 f80b 	bl	2410 <__aeabi_dsub>
     3fa:	1c04      	adds	r4, r0, #0
     3fc:	1c0d      	adds	r5, r1, #0
     3fe:	9804      	ldr	r0, [sp, #16]
     400:	9905      	ldr	r1, [sp, #20]
     402:	4a34      	ldr	r2, [pc, #208]	; (4d4 <__ieee754_rem_pio2+0x38c>)
     404:	4b34      	ldr	r3, [pc, #208]	; (4d8 <__ieee754_rem_pio2+0x390>)
     406:	f001 fd69 	bl	1edc <__aeabi_dmul>
     40a:	1c22      	adds	r2, r4, #0
     40c:	1c2b      	adds	r3, r5, #0
     40e:	f001 ffff 	bl	2410 <__aeabi_dsub>
     412:	1c03      	adds	r3, r0, #0
     414:	1c0c      	adds	r4, r1, #0
     416:	9808      	ldr	r0, [sp, #32]
     418:	9909      	ldr	r1, [sp, #36]	; 0x24
     41a:	9306      	str	r3, [sp, #24]
     41c:	9407      	str	r4, [sp, #28]
     41e:	1c1a      	adds	r2, r3, #0
     420:	1c23      	adds	r3, r4, #0
     422:	f001 fff5 	bl	2410 <__aeabi_dsub>
     426:	1c02      	adds	r2, r0, #0
     428:	1c0b      	adds	r3, r1, #0
     42a:	1c05      	adds	r5, r0, #0
     42c:	4648      	mov	r0, r9
     42e:	6002      	str	r2, [r0, #0]
     430:	6043      	str	r3, [r0, #4]
     432:	004b      	lsls	r3, r1, #1
     434:	0d5b      	lsrs	r3, r3, #21
     436:	1c0c      	adds	r4, r1, #0
     438:	9908      	ldr	r1, [sp, #32]
     43a:	9a09      	ldr	r2, [sp, #36]	; 0x24
     43c:	1af3      	subs	r3, r6, r3
     43e:	9102      	str	r1, [sp, #8]
     440:	9203      	str	r2, [sp, #12]
     442:	2b31      	cmp	r3, #49	; 0x31
     444:	dd8a      	ble.n	35c <__ieee754_rem_pio2+0x214>
     446:	9804      	ldr	r0, [sp, #16]
     448:	9905      	ldr	r1, [sp, #20]
     44a:	22b8      	movs	r2, #184	; 0xb8
     44c:	4b22      	ldr	r3, [pc, #136]	; (4d8 <__ieee754_rem_pio2+0x390>)
     44e:	0592      	lsls	r2, r2, #22
     450:	f001 fd44 	bl	1edc <__aeabi_dmul>
     454:	1c04      	adds	r4, r0, #0
     456:	1c0d      	adds	r5, r1, #0
     458:	9802      	ldr	r0, [sp, #8]
     45a:	9903      	ldr	r1, [sp, #12]
     45c:	1c22      	adds	r2, r4, #0
     45e:	1c2b      	adds	r3, r5, #0
     460:	f001 ffd6 	bl	2410 <__aeabi_dsub>
     464:	1c02      	adds	r2, r0, #0
     466:	1c0b      	adds	r3, r1, #0
     468:	9808      	ldr	r0, [sp, #32]
     46a:	9909      	ldr	r1, [sp, #36]	; 0x24
     46c:	9202      	str	r2, [sp, #8]
     46e:	9303      	str	r3, [sp, #12]
     470:	f001 ffce 	bl	2410 <__aeabi_dsub>
     474:	1c22      	adds	r2, r4, #0
     476:	1c2b      	adds	r3, r5, #0
     478:	f001 ffca 	bl	2410 <__aeabi_dsub>
     47c:	1c04      	adds	r4, r0, #0
     47e:	1c0d      	adds	r5, r1, #0
     480:	9804      	ldr	r0, [sp, #16]
     482:	9905      	ldr	r1, [sp, #20]
     484:	4a19      	ldr	r2, [pc, #100]	; (4ec <__ieee754_rem_pio2+0x3a4>)
     486:	4b1a      	ldr	r3, [pc, #104]	; (4f0 <__ieee754_rem_pio2+0x3a8>)
     488:	f001 fd28 	bl	1edc <__aeabi_dmul>
     48c:	1c22      	adds	r2, r4, #0
     48e:	1c2b      	adds	r3, r5, #0
     490:	f001 ffbe 	bl	2410 <__aeabi_dsub>
     494:	1c03      	adds	r3, r0, #0
     496:	1c0c      	adds	r4, r1, #0
     498:	9802      	ldr	r0, [sp, #8]
     49a:	9903      	ldr	r1, [sp, #12]
     49c:	9306      	str	r3, [sp, #24]
     49e:	9407      	str	r4, [sp, #28]
     4a0:	1c1a      	adds	r2, r3, #0
     4a2:	1c23      	adds	r3, r4, #0
     4a4:	e751      	b.n	34a <__ieee754_rem_pio2+0x202>
     4a6:	46c0      	nop			; (mov r8, r8)
     4a8:	3fe921fb 	.word	0x3fe921fb
     4ac:	4002d97b 	.word	0x4002d97b
     4b0:	54400000 	.word	0x54400000
     4b4:	3ff921fb 	.word	0x3ff921fb
     4b8:	1a626331 	.word	0x1a626331
     4bc:	3dd0b461 	.word	0x3dd0b461
     4c0:	413921fb 	.word	0x413921fb
     4c4:	7fefffff 	.word	0x7fefffff
     4c8:	fffffbea 	.word	0xfffffbea
     4cc:	41700000 	.word	0x41700000
     4d0:	00002ca4 	.word	0x00002ca4
     4d4:	2e037073 	.word	0x2e037073
     4d8:	3ba3198a 	.word	0x3ba3198a
     4dc:	6dc9c883 	.word	0x6dc9c883
     4e0:	3fe45f30 	.word	0x3fe45f30
     4e4:	3fe00000 	.word	0x3fe00000
     4e8:	00002c24 	.word	0x00002c24
     4ec:	252049c1 	.word	0x252049c1
     4f0:	397b839a 	.word	0x397b839a
     4f4:	4b1b      	ldr	r3, [pc, #108]	; (564 <__ieee754_rem_pio2+0x41c>)
     4f6:	f001 f8af 	bl	1658 <__aeabi_dadd>
     4fa:	4b1a      	ldr	r3, [pc, #104]	; (564 <__ieee754_rem_pio2+0x41c>)
     4fc:	1c04      	adds	r4, r0, #0
     4fe:	1c0d      	adds	r5, r1, #0
     500:	429e      	cmp	r6, r3
     502:	d018      	beq.n	536 <__ieee754_rem_pio2+0x3ee>
     504:	4a18      	ldr	r2, [pc, #96]	; (568 <__ieee754_rem_pio2+0x420>)
     506:	4b19      	ldr	r3, [pc, #100]	; (56c <__ieee754_rem_pio2+0x424>)
     508:	f001 f8a6 	bl	1658 <__aeabi_dadd>
     50c:	1c02      	adds	r2, r0, #0
     50e:	1c0b      	adds	r3, r1, #0
     510:	4649      	mov	r1, r9
     512:	1c20      	adds	r0, r4, #0
     514:	600a      	str	r2, [r1, #0]
     516:	604b      	str	r3, [r1, #4]
     518:	1c29      	adds	r1, r5, #0
     51a:	f001 ff79 	bl	2410 <__aeabi_dsub>
     51e:	4a12      	ldr	r2, [pc, #72]	; (568 <__ieee754_rem_pio2+0x420>)
     520:	4b12      	ldr	r3, [pc, #72]	; (56c <__ieee754_rem_pio2+0x424>)
     522:	f001 f899 	bl	1658 <__aeabi_dadd>
     526:	464b      	mov	r3, r9
     528:	6098      	str	r0, [r3, #8]
     52a:	60d9      	str	r1, [r3, #12]
     52c:	2001      	movs	r0, #1
     52e:	4240      	negs	r0, r0
     530:	e6aa      	b.n	288 <__ieee754_rem_pio2+0x140>
     532:	2303      	movs	r3, #3
     534:	e685      	b.n	242 <__ieee754_rem_pio2+0xfa>
     536:	22d3      	movs	r2, #211	; 0xd3
     538:	4b0c      	ldr	r3, [pc, #48]	; (56c <__ieee754_rem_pio2+0x424>)
     53a:	0552      	lsls	r2, r2, #21
     53c:	f001 f88c 	bl	1658 <__aeabi_dadd>
     540:	4a0b      	ldr	r2, [pc, #44]	; (570 <__ieee754_rem_pio2+0x428>)
     542:	4b0c      	ldr	r3, [pc, #48]	; (574 <__ieee754_rem_pio2+0x42c>)
     544:	1c04      	adds	r4, r0, #0
     546:	1c0d      	adds	r5, r1, #0
     548:	f001 f886 	bl	1658 <__aeabi_dadd>
     54c:	1c02      	adds	r2, r0, #0
     54e:	1c0b      	adds	r3, r1, #0
     550:	4649      	mov	r1, r9
     552:	1c20      	adds	r0, r4, #0
     554:	600a      	str	r2, [r1, #0]
     556:	604b      	str	r3, [r1, #4]
     558:	1c29      	adds	r1, r5, #0
     55a:	f001 ff59 	bl	2410 <__aeabi_dsub>
     55e:	4a04      	ldr	r2, [pc, #16]	; (570 <__ieee754_rem_pio2+0x428>)
     560:	4b04      	ldr	r3, [pc, #16]	; (574 <__ieee754_rem_pio2+0x42c>)
     562:	e7de      	b.n	522 <__ieee754_rem_pio2+0x3da>
     564:	3ff921fb 	.word	0x3ff921fb
     568:	1a626331 	.word	0x1a626331
     56c:	3dd0b461 	.word	0x3dd0b461
     570:	2e037073 	.word	0x2e037073
     574:	3ba3198a 	.word	0x3ba3198a

00000578 <__kernel_cos>:
     578:	b5f0      	push	{r4, r5, r6, r7, lr}
     57a:	464f      	mov	r7, r9
     57c:	4646      	mov	r6, r8
     57e:	b4c0      	push	{r6, r7}
     580:	b087      	sub	sp, #28
     582:	9200      	str	r2, [sp, #0]
     584:	9301      	str	r3, [sp, #4]
     586:	4b75      	ldr	r3, [pc, #468]	; (75c <__kernel_cos+0x1e4>)
     588:	004f      	lsls	r7, r1, #1
     58a:	4681      	mov	r9, r0
     58c:	4688      	mov	r8, r1
     58e:	087f      	lsrs	r7, r7, #1
     590:	429f      	cmp	r7, r3
     592:	dc63      	bgt.n	65c <__kernel_cos+0xe4>
     594:	f002 fab6 	bl	2b04 <__aeabi_d2iz>
     598:	2800      	cmp	r0, #0
     59a:	d100      	bne.n	59e <__kernel_cos+0x26>
     59c:	e0da      	b.n	754 <__kernel_cos+0x1dc>
     59e:	464a      	mov	r2, r9
     5a0:	4643      	mov	r3, r8
     5a2:	4648      	mov	r0, r9
     5a4:	4641      	mov	r1, r8
     5a6:	f001 fc99 	bl	1edc <__aeabi_dmul>
     5aa:	1c04      	adds	r4, r0, #0
     5ac:	1c0d      	adds	r5, r1, #0
     5ae:	4a6c      	ldr	r2, [pc, #432]	; (760 <__kernel_cos+0x1e8>)
     5b0:	4b6c      	ldr	r3, [pc, #432]	; (764 <__kernel_cos+0x1ec>)
     5b2:	f001 fc93 	bl	1edc <__aeabi_dmul>
     5b6:	4a6c      	ldr	r2, [pc, #432]	; (768 <__kernel_cos+0x1f0>)
     5b8:	4b6c      	ldr	r3, [pc, #432]	; (76c <__kernel_cos+0x1f4>)
     5ba:	f001 f84d 	bl	1658 <__aeabi_dadd>
     5be:	1c22      	adds	r2, r4, #0
     5c0:	1c2b      	adds	r3, r5, #0
     5c2:	f001 fc8b 	bl	1edc <__aeabi_dmul>
     5c6:	4a6a      	ldr	r2, [pc, #424]	; (770 <__kernel_cos+0x1f8>)
     5c8:	4b6a      	ldr	r3, [pc, #424]	; (774 <__kernel_cos+0x1fc>)
     5ca:	f001 ff21 	bl	2410 <__aeabi_dsub>
     5ce:	1c22      	adds	r2, r4, #0
     5d0:	1c2b      	adds	r3, r5, #0
     5d2:	f001 fc83 	bl	1edc <__aeabi_dmul>
     5d6:	4a68      	ldr	r2, [pc, #416]	; (778 <__kernel_cos+0x200>)
     5d8:	4b68      	ldr	r3, [pc, #416]	; (77c <__kernel_cos+0x204>)
     5da:	f001 f83d 	bl	1658 <__aeabi_dadd>
     5de:	1c22      	adds	r2, r4, #0
     5e0:	1c2b      	adds	r3, r5, #0
     5e2:	f001 fc7b 	bl	1edc <__aeabi_dmul>
     5e6:	4a66      	ldr	r2, [pc, #408]	; (780 <__kernel_cos+0x208>)
     5e8:	4b66      	ldr	r3, [pc, #408]	; (784 <__kernel_cos+0x20c>)
     5ea:	f001 ff11 	bl	2410 <__aeabi_dsub>
     5ee:	1c22      	adds	r2, r4, #0
     5f0:	1c2b      	adds	r3, r5, #0
     5f2:	f001 fc73 	bl	1edc <__aeabi_dmul>
     5f6:	4a64      	ldr	r2, [pc, #400]	; (788 <__kernel_cos+0x210>)
     5f8:	4b64      	ldr	r3, [pc, #400]	; (78c <__kernel_cos+0x214>)
     5fa:	f001 f82d 	bl	1658 <__aeabi_dadd>
     5fe:	1c22      	adds	r2, r4, #0
     600:	1c2b      	adds	r3, r5, #0
     602:	f001 fc6b 	bl	1edc <__aeabi_dmul>
     606:	9002      	str	r0, [sp, #8]
     608:	9103      	str	r1, [sp, #12]
     60a:	1c20      	adds	r0, r4, #0
     60c:	1c29      	adds	r1, r5, #0
     60e:	2200      	movs	r2, #0
     610:	4b5f      	ldr	r3, [pc, #380]	; (790 <__kernel_cos+0x218>)
     612:	f001 fc63 	bl	1edc <__aeabi_dmul>
     616:	9a02      	ldr	r2, [sp, #8]
     618:	9b03      	ldr	r3, [sp, #12]
     61a:	1c06      	adds	r6, r0, #0
     61c:	1c0f      	adds	r7, r1, #0
     61e:	1c20      	adds	r0, r4, #0
     620:	1c29      	adds	r1, r5, #0
     622:	f001 fc5b 	bl	1edc <__aeabi_dmul>
     626:	9a00      	ldr	r2, [sp, #0]
     628:	9b01      	ldr	r3, [sp, #4]
     62a:	1c04      	adds	r4, r0, #0
     62c:	1c0d      	adds	r5, r1, #0
     62e:	4648      	mov	r0, r9
     630:	4641      	mov	r1, r8
     632:	f001 fc53 	bl	1edc <__aeabi_dmul>
     636:	1c02      	adds	r2, r0, #0
     638:	1c0b      	adds	r3, r1, #0
     63a:	1c20      	adds	r0, r4, #0
     63c:	1c29      	adds	r1, r5, #0
     63e:	f001 fee7 	bl	2410 <__aeabi_dsub>
     642:	1c02      	adds	r2, r0, #0
     644:	1c0b      	adds	r3, r1, #0
     646:	1c30      	adds	r0, r6, #0
     648:	1c39      	adds	r1, r7, #0
     64a:	f001 fee1 	bl	2410 <__aeabi_dsub>
     64e:	1c02      	adds	r2, r0, #0
     650:	1c0b      	adds	r3, r1, #0
     652:	2000      	movs	r0, #0
     654:	494f      	ldr	r1, [pc, #316]	; (794 <__kernel_cos+0x21c>)
     656:	f001 fedb 	bl	2410 <__aeabi_dsub>
     65a:	e070      	b.n	73e <__kernel_cos+0x1c6>
     65c:	464a      	mov	r2, r9
     65e:	4643      	mov	r3, r8
     660:	f001 fc3c 	bl	1edc <__aeabi_dmul>
     664:	1c04      	adds	r4, r0, #0
     666:	1c0d      	adds	r5, r1, #0
     668:	4a3d      	ldr	r2, [pc, #244]	; (760 <__kernel_cos+0x1e8>)
     66a:	4b3e      	ldr	r3, [pc, #248]	; (764 <__kernel_cos+0x1ec>)
     66c:	f001 fc36 	bl	1edc <__aeabi_dmul>
     670:	4a3d      	ldr	r2, [pc, #244]	; (768 <__kernel_cos+0x1f0>)
     672:	4b3e      	ldr	r3, [pc, #248]	; (76c <__kernel_cos+0x1f4>)
     674:	f000 fff0 	bl	1658 <__aeabi_dadd>
     678:	1c22      	adds	r2, r4, #0
     67a:	1c2b      	adds	r3, r5, #0
     67c:	f001 fc2e 	bl	1edc <__aeabi_dmul>
     680:	4a3b      	ldr	r2, [pc, #236]	; (770 <__kernel_cos+0x1f8>)
     682:	4b3c      	ldr	r3, [pc, #240]	; (774 <__kernel_cos+0x1fc>)
     684:	f001 fec4 	bl	2410 <__aeabi_dsub>
     688:	1c22      	adds	r2, r4, #0
     68a:	1c2b      	adds	r3, r5, #0
     68c:	f001 fc26 	bl	1edc <__aeabi_dmul>
     690:	4a39      	ldr	r2, [pc, #228]	; (778 <__kernel_cos+0x200>)
     692:	4b3a      	ldr	r3, [pc, #232]	; (77c <__kernel_cos+0x204>)
     694:	f000 ffe0 	bl	1658 <__aeabi_dadd>
     698:	1c22      	adds	r2, r4, #0
     69a:	1c2b      	adds	r3, r5, #0
     69c:	f001 fc1e 	bl	1edc <__aeabi_dmul>
     6a0:	4a37      	ldr	r2, [pc, #220]	; (780 <__kernel_cos+0x208>)
     6a2:	4b38      	ldr	r3, [pc, #224]	; (784 <__kernel_cos+0x20c>)
     6a4:	f001 feb4 	bl	2410 <__aeabi_dsub>
     6a8:	1c22      	adds	r2, r4, #0
     6aa:	1c2b      	adds	r3, r5, #0
     6ac:	f001 fc16 	bl	1edc <__aeabi_dmul>
     6b0:	4a35      	ldr	r2, [pc, #212]	; (788 <__kernel_cos+0x210>)
     6b2:	4b36      	ldr	r3, [pc, #216]	; (78c <__kernel_cos+0x214>)
     6b4:	f000 ffd0 	bl	1658 <__aeabi_dadd>
     6b8:	1c2b      	adds	r3, r5, #0
     6ba:	1c22      	adds	r2, r4, #0
     6bc:	f001 fc0e 	bl	1edc <__aeabi_dmul>
     6c0:	4b35      	ldr	r3, [pc, #212]	; (798 <__kernel_cos+0x220>)
     6c2:	9002      	str	r0, [sp, #8]
     6c4:	9103      	str	r1, [sp, #12]
     6c6:	429f      	cmp	r7, r3
     6c8:	dd9f      	ble.n	60a <__kernel_cos+0x92>
     6ca:	4b34      	ldr	r3, [pc, #208]	; (79c <__kernel_cos+0x224>)
     6cc:	2200      	movs	r2, #0
     6ce:	429f      	cmp	r7, r3
     6d0:	dc3a      	bgt.n	748 <__kernel_cos+0x1d0>
     6d2:	4933      	ldr	r1, [pc, #204]	; (7a0 <__kernel_cos+0x228>)
     6d4:	2000      	movs	r0, #0
     6d6:	187b      	adds	r3, r7, r1
     6d8:	492e      	ldr	r1, [pc, #184]	; (794 <__kernel_cos+0x21c>)
     6da:	1c16      	adds	r6, r2, #0
     6dc:	1c1f      	adds	r7, r3, #0
     6de:	f001 fe97 	bl	2410 <__aeabi_dsub>
     6e2:	9004      	str	r0, [sp, #16]
     6e4:	9105      	str	r1, [sp, #20]
     6e6:	1c20      	adds	r0, r4, #0
     6e8:	1c29      	adds	r1, r5, #0
     6ea:	2200      	movs	r2, #0
     6ec:	4b28      	ldr	r3, [pc, #160]	; (790 <__kernel_cos+0x218>)
     6ee:	f001 fbf5 	bl	1edc <__aeabi_dmul>
     6f2:	1c32      	adds	r2, r6, #0
     6f4:	1c3b      	adds	r3, r7, #0
     6f6:	f001 fe8b 	bl	2410 <__aeabi_dsub>
     6fa:	9a02      	ldr	r2, [sp, #8]
     6fc:	9b03      	ldr	r3, [sp, #12]
     6fe:	1c06      	adds	r6, r0, #0
     700:	1c0f      	adds	r7, r1, #0
     702:	1c20      	adds	r0, r4, #0
     704:	1c29      	adds	r1, r5, #0
     706:	f001 fbe9 	bl	1edc <__aeabi_dmul>
     70a:	9a00      	ldr	r2, [sp, #0]
     70c:	9b01      	ldr	r3, [sp, #4]
     70e:	1c04      	adds	r4, r0, #0
     710:	1c0d      	adds	r5, r1, #0
     712:	4648      	mov	r0, r9
     714:	4641      	mov	r1, r8
     716:	f001 fbe1 	bl	1edc <__aeabi_dmul>
     71a:	1c02      	adds	r2, r0, #0
     71c:	1c0b      	adds	r3, r1, #0
     71e:	1c20      	adds	r0, r4, #0
     720:	1c29      	adds	r1, r5, #0
     722:	f001 fe75 	bl	2410 <__aeabi_dsub>
     726:	1c02      	adds	r2, r0, #0
     728:	1c0b      	adds	r3, r1, #0
     72a:	1c30      	adds	r0, r6, #0
     72c:	1c39      	adds	r1, r7, #0
     72e:	f001 fe6f 	bl	2410 <__aeabi_dsub>
     732:	1c02      	adds	r2, r0, #0
     734:	1c0b      	adds	r3, r1, #0
     736:	9804      	ldr	r0, [sp, #16]
     738:	9905      	ldr	r1, [sp, #20]
     73a:	f001 fe69 	bl	2410 <__aeabi_dsub>
     73e:	b007      	add	sp, #28
     740:	bc0c      	pop	{r2, r3}
     742:	4690      	mov	r8, r2
     744:	4699      	mov	r9, r3
     746:	bdf0      	pop	{r4, r5, r6, r7, pc}
     748:	4b16      	ldr	r3, [pc, #88]	; (7a4 <__kernel_cos+0x22c>)
     74a:	2600      	movs	r6, #0
     74c:	9204      	str	r2, [sp, #16]
     74e:	9305      	str	r3, [sp, #20]
     750:	4f15      	ldr	r7, [pc, #84]	; (7a8 <__kernel_cos+0x230>)
     752:	e7c8      	b.n	6e6 <__kernel_cos+0x16e>
     754:	2000      	movs	r0, #0
     756:	490f      	ldr	r1, [pc, #60]	; (794 <__kernel_cos+0x21c>)
     758:	e7f1      	b.n	73e <__kernel_cos+0x1c6>
     75a:	46c0      	nop			; (mov r8, r8)
     75c:	3e3fffff 	.word	0x3e3fffff
     760:	be8838d4 	.word	0xbe8838d4
     764:	bda8fae9 	.word	0xbda8fae9
     768:	bdb4b1c4 	.word	0xbdb4b1c4
     76c:	3e21ee9e 	.word	0x3e21ee9e
     770:	809c52ad 	.word	0x809c52ad
     774:	3e927e4f 	.word	0x3e927e4f
     778:	19cb1590 	.word	0x19cb1590
     77c:	3efa01a0 	.word	0x3efa01a0
     780:	16c15177 	.word	0x16c15177
     784:	3f56c16c 	.word	0x3f56c16c
     788:	5555554c 	.word	0x5555554c
     78c:	3fa55555 	.word	0x3fa55555
     790:	3fe00000 	.word	0x3fe00000
     794:	3ff00000 	.word	0x3ff00000
     798:	3fd33332 	.word	0x3fd33332
     79c:	3fe90000 	.word	0x3fe90000
     7a0:	ffe00000 	.word	0xffe00000
     7a4:	3fe70000 	.word	0x3fe70000
     7a8:	3fd20000 	.word	0x3fd20000

000007ac <__kernel_rem_pio2>:
     7ac:	b5f0      	push	{r4, r5, r6, r7, lr}
     7ae:	4656      	mov	r6, sl
     7b0:	464d      	mov	r5, r9
     7b2:	4644      	mov	r4, r8
     7b4:	465f      	mov	r7, fp
     7b6:	b4f0      	push	{r4, r5, r6, r7}
     7b8:	4c8e      	ldr	r4, [pc, #568]	; (9f4 <__main_stack_size+0x1f4>)
     7ba:	44a5      	add	sp, r4
     7bc:	9108      	str	r1, [sp, #32]
     7be:	1c19      	adds	r1, r3, #0
     7c0:	1c14      	adds	r4, r2, #0
     7c2:	9aa6      	ldr	r2, [sp, #664]	; 0x298
     7c4:	9309      	str	r3, [sp, #36]	; 0x24
     7c6:	4b8c      	ldr	r3, [pc, #560]	; (9f8 <__main_stack_size+0x1f8>)
     7c8:	0092      	lsls	r2, r2, #2
     7ca:	58d2      	ldr	r2, [r2, r3]
     7cc:	1c0b      	adds	r3, r1, #0
     7ce:	9002      	str	r0, [sp, #8]
     7d0:	3b01      	subs	r3, #1
     7d2:	1ee0      	subs	r0, r4, #3
     7d4:	2118      	movs	r1, #24
     7d6:	1c1d      	adds	r5, r3, #0
     7d8:	1c16      	adds	r6, r2, #0
     7da:	9207      	str	r2, [sp, #28]
     7dc:	9300      	str	r3, [sp, #0]
     7de:	f000 fe0b 	bl	13f8 <__aeabi_idiv>
     7e2:	43c3      	mvns	r3, r0
     7e4:	1c02      	adds	r2, r0, #0
     7e6:	17db      	asrs	r3, r3, #31
     7e8:	401a      	ands	r2, r3
     7ea:	43d3      	mvns	r3, r2
     7ec:	1c11      	adds	r1, r2, #0
     7ee:	920c      	str	r2, [sp, #48]	; 0x30
     7f0:	005a      	lsls	r2, r3, #1
     7f2:	18d3      	adds	r3, r2, r3
     7f4:	00db      	lsls	r3, r3, #3
     7f6:	191b      	adds	r3, r3, r4
     7f8:	9304      	str	r3, [sp, #16]
     7fa:	1b4c      	subs	r4, r1, r5
     7fc:	19ae      	adds	r6, r5, r6
     7fe:	d418      	bmi.n	832 <__main_stack_size+0x32>
     800:	9ba7      	ldr	r3, [sp, #668]	; 0x29c
     802:	00a5      	lsls	r5, r4, #2
     804:	469c      	mov	ip, r3
     806:	19a6      	adds	r6, r4, r6
     808:	af24      	add	r7, sp, #144	; 0x90
     80a:	4465      	add	r5, ip
     80c:	3601      	adds	r6, #1
     80e:	e007      	b.n	820 <__main_stack_size+0x20>
     810:	6828      	ldr	r0, [r5, #0]
     812:	f002 f9ad 	bl	2b70 <__aeabi_i2d>
     816:	3401      	adds	r4, #1
     818:	c703      	stmia	r7!, {r0, r1}
     81a:	3504      	adds	r5, #4
     81c:	42b4      	cmp	r4, r6
     81e:	d008      	beq.n	832 <__main_stack_size+0x32>
     820:	2c00      	cmp	r4, #0
     822:	daf5      	bge.n	810 <__main_stack_size+0x10>
     824:	2000      	movs	r0, #0
     826:	2100      	movs	r1, #0
     828:	3401      	adds	r4, #1
     82a:	c703      	stmia	r7!, {r0, r1}
     82c:	3504      	adds	r5, #4
     82e:	42b4      	cmp	r4, r6
     830:	d1f6      	bne.n	820 <__main_stack_size+0x20>
     832:	9b07      	ldr	r3, [sp, #28]
     834:	2b00      	cmp	r3, #0
     836:	da01      	bge.n	83c <__main_stack_size+0x3c>
     838:	f000 fbec 	bl	1014 <__ram_size+0x14>
     83c:	2200      	movs	r2, #0
     83e:	9b07      	ldr	r3, [sp, #28]
     840:	4691      	mov	r9, r2
     842:	3301      	adds	r3, #1
     844:	00db      	lsls	r3, r3, #3
     846:	469a      	mov	sl, r3
     848:	9b09      	ldr	r3, [sp, #36]	; 0x24
     84a:	aa74      	add	r2, sp, #464	; 0x1d0
     84c:	00db      	lsls	r3, r3, #3
     84e:	9206      	str	r2, [sp, #24]
     850:	2208      	movs	r2, #8
     852:	469c      	mov	ip, r3
     854:	4252      	negs	r2, r2
     856:	4462      	add	r2, ip
     858:	4693      	mov	fp, r2
     85a:	9303      	str	r3, [sp, #12]
     85c:	9b00      	ldr	r3, [sp, #0]
     85e:	2b00      	cmp	r3, #0
     860:	da00      	bge.n	864 <__main_stack_size+0x64>
     862:	e290      	b.n	d86 <__main_stack_size+0x586>
     864:	ab24      	add	r3, sp, #144	; 0x90
     866:	469c      	mov	ip, r3
     868:	465c      	mov	r4, fp
     86a:	464b      	mov	r3, r9
     86c:	46e0      	mov	r8, ip
     86e:	2600      	movs	r6, #0
     870:	2700      	movs	r7, #0
     872:	444c      	add	r4, r9
     874:	3b08      	subs	r3, #8
     876:	9d02      	ldr	r5, [sp, #8]
     878:	4464      	add	r4, ip
     87a:	4498      	add	r8, r3
     87c:	6822      	ldr	r2, [r4, #0]
     87e:	6863      	ldr	r3, [r4, #4]
     880:	cd03      	ldmia	r5!, {r0, r1}
     882:	f001 fb2b 	bl	1edc <__aeabi_dmul>
     886:	1c02      	adds	r2, r0, #0
     888:	1c0b      	adds	r3, r1, #0
     88a:	1c30      	adds	r0, r6, #0
     88c:	1c39      	adds	r1, r7, #0
     88e:	f000 fee3 	bl	1658 <__aeabi_dadd>
     892:	3c08      	subs	r4, #8
     894:	1c06      	adds	r6, r0, #0
     896:	1c0f      	adds	r7, r1, #0
     898:	4544      	cmp	r4, r8
     89a:	d1ef      	bne.n	87c <__main_stack_size+0x7c>
     89c:	9b06      	ldr	r3, [sp, #24]
     89e:	444b      	add	r3, r9
     8a0:	601e      	str	r6, [r3, #0]
     8a2:	605f      	str	r7, [r3, #4]
     8a4:	2308      	movs	r3, #8
     8a6:	469c      	mov	ip, r3
     8a8:	44e1      	add	r9, ip
     8aa:	45d1      	cmp	r9, sl
     8ac:	d1d6      	bne.n	85c <__main_stack_size+0x5c>
     8ae:	9a07      	ldr	r2, [sp, #28]
     8b0:	4952      	ldr	r1, [pc, #328]	; (9fc <__main_stack_size+0x1fc>)
     8b2:	1c13      	adds	r3, r2, #0
     8b4:	468c      	mov	ip, r1
     8b6:	4463      	add	r3, ip
     8b8:	009b      	lsls	r3, r3, #2
     8ba:	a810      	add	r0, sp, #64	; 0x40
     8bc:	1c19      	adds	r1, r3, #0
     8be:	4684      	mov	ip, r0
     8c0:	4691      	mov	r9, r2
     8c2:	3304      	adds	r3, #4
     8c4:	4461      	add	r1, ip
     8c6:	4463      	add	r3, ip
     8c8:	910b      	str	r1, [sp, #44]	; 0x2c
     8ca:	930d      	str	r3, [sp, #52]	; 0x34
     8cc:	464b      	mov	r3, r9
     8ce:	00db      	lsls	r3, r3, #3
     8d0:	1c1a      	adds	r2, r3, #0
     8d2:	9906      	ldr	r1, [sp, #24]
     8d4:	930a      	str	r3, [sp, #40]	; 0x28
     8d6:	4694      	mov	ip, r2
     8d8:	1c0b      	adds	r3, r1, #0
     8da:	4463      	add	r3, ip
     8dc:	681e      	ldr	r6, [r3, #0]
     8de:	685f      	ldr	r7, [r3, #4]
     8e0:	464b      	mov	r3, r9
     8e2:	2b00      	cmp	r3, #0
     8e4:	dd32      	ble.n	94c <__main_stack_size+0x14c>
     8e6:	4688      	mov	r8, r1
     8e8:	ab10      	add	r3, sp, #64	; 0x40
     8ea:	469a      	mov	sl, r3
     8ec:	4b44      	ldr	r3, [pc, #272]	; (a00 <__main_stack_size+0x200>)
     8ee:	444b      	add	r3, r9
     8f0:	00db      	lsls	r3, r3, #3
     8f2:	4498      	add	r8, r3
     8f4:	ab72      	add	r3, sp, #456	; 0x1c8
     8f6:	469b      	mov	fp, r3
     8f8:	2200      	movs	r2, #0
     8fa:	4b42      	ldr	r3, [pc, #264]	; (a04 <__main_stack_size+0x204>)
     8fc:	1c30      	adds	r0, r6, #0
     8fe:	1c39      	adds	r1, r7, #0
     900:	f001 faec 	bl	1edc <__aeabi_dmul>
     904:	f002 f8fe 	bl	2b04 <__aeabi_d2iz>
     908:	f002 f932 	bl	2b70 <__aeabi_i2d>
     90c:	2200      	movs	r2, #0
     90e:	4b3e      	ldr	r3, [pc, #248]	; (a08 <__main_stack_size+0x208>)
     910:	1c04      	adds	r4, r0, #0
     912:	1c0d      	adds	r5, r1, #0
     914:	f001 fae2 	bl	1edc <__aeabi_dmul>
     918:	1c02      	adds	r2, r0, #0
     91a:	1c0b      	adds	r3, r1, #0
     91c:	1c30      	adds	r0, r6, #0
     91e:	1c39      	adds	r1, r7, #0
     920:	f001 fd76 	bl	2410 <__aeabi_dsub>
     924:	f002 f8ee 	bl	2b04 <__aeabi_d2iz>
     928:	4653      	mov	r3, sl
     92a:	c301      	stmia	r3!, {r0}
     92c:	469a      	mov	sl, r3
     92e:	4643      	mov	r3, r8
     930:	1c20      	adds	r0, r4, #0
     932:	681a      	ldr	r2, [r3, #0]
     934:	685b      	ldr	r3, [r3, #4]
     936:	1c29      	adds	r1, r5, #0
     938:	f000 fe8e 	bl	1658 <__aeabi_dadd>
     93c:	2308      	movs	r3, #8
     93e:	425b      	negs	r3, r3
     940:	469c      	mov	ip, r3
     942:	44e0      	add	r8, ip
     944:	1c06      	adds	r6, r0, #0
     946:	1c0f      	adds	r7, r1, #0
     948:	45d8      	cmp	r8, fp
     94a:	d1d5      	bne.n	8f8 <__main_stack_size+0xf8>
     94c:	9b04      	ldr	r3, [sp, #16]
     94e:	1c30      	adds	r0, r6, #0
     950:	1c1a      	adds	r2, r3, #0
     952:	1c39      	adds	r1, r7, #0
     954:	4698      	mov	r8, r3
     956:	f000 fccb 	bl	12f0 <scalbn>
     95a:	23ff      	movs	r3, #255	; 0xff
     95c:	2200      	movs	r2, #0
     95e:	059b      	lsls	r3, r3, #22
     960:	1c04      	adds	r4, r0, #0
     962:	1c0d      	adds	r5, r1, #0
     964:	f001 faba 	bl	1edc <__aeabi_dmul>
     968:	f000 fc1c 	bl	11a4 <floor>
     96c:	2200      	movs	r2, #0
     96e:	4b27      	ldr	r3, [pc, #156]	; (a0c <__main_stack_size+0x20c>)
     970:	f001 fab4 	bl	1edc <__aeabi_dmul>
     974:	1c02      	adds	r2, r0, #0
     976:	1c0b      	adds	r3, r1, #0
     978:	1c20      	adds	r0, r4, #0
     97a:	1c29      	adds	r1, r5, #0
     97c:	f001 fd48 	bl	2410 <__aeabi_dsub>
     980:	1c0d      	adds	r5, r1, #0
     982:	1c04      	adds	r4, r0, #0
     984:	f002 f8be 	bl	2b04 <__aeabi_d2iz>
     988:	4682      	mov	sl, r0
     98a:	f002 f8f1 	bl	2b70 <__aeabi_i2d>
     98e:	1c02      	adds	r2, r0, #0
     990:	1c0b      	adds	r3, r1, #0
     992:	1c20      	adds	r0, r4, #0
     994:	1c29      	adds	r1, r5, #0
     996:	f001 fd3b 	bl	2410 <__aeabi_dsub>
     99a:	1c06      	adds	r6, r0, #0
     99c:	4640      	mov	r0, r8
     99e:	1c0f      	adds	r7, r1, #0
     9a0:	2800      	cmp	r0, #0
     9a2:	dc00      	bgt.n	9a6 <__main_stack_size+0x1a6>
     9a4:	e1cf      	b.n	d46 <__main_stack_size+0x546>
     9a6:	464b      	mov	r3, r9
     9a8:	1e5a      	subs	r2, r3, #1
     9aa:	0092      	lsls	r2, r2, #2
     9ac:	ab10      	add	r3, sp, #64	; 0x40
     9ae:	589b      	ldr	r3, [r3, r2]
     9b0:	2518      	movs	r5, #24
     9b2:	1c19      	adds	r1, r3, #0
     9b4:	1a2d      	subs	r5, r5, r0
     9b6:	4129      	asrs	r1, r5
     9b8:	448a      	add	sl, r1
     9ba:	40a9      	lsls	r1, r5
     9bc:	2517      	movs	r5, #23
     9be:	1a5b      	subs	r3, r3, r1
     9c0:	1a2d      	subs	r5, r5, r0
     9c2:	a910      	add	r1, sp, #64	; 0x40
     9c4:	508b      	str	r3, [r1, r2]
     9c6:	412b      	asrs	r3, r5
     9c8:	9305      	str	r3, [sp, #20]
     9ca:	9b05      	ldr	r3, [sp, #20]
     9cc:	2b00      	cmp	r3, #0
     9ce:	dd4c      	ble.n	a6a <__main_stack_size+0x26a>
     9d0:	2301      	movs	r3, #1
     9d2:	469c      	mov	ip, r3
     9d4:	464b      	mov	r3, r9
     9d6:	44e2      	add	sl, ip
     9d8:	2b00      	cmp	r3, #0
     9da:	dc00      	bgt.n	9de <__main_stack_size+0x1de>
     9dc:	e318      	b.n	1010 <__ram_size+0x10>
     9de:	2580      	movs	r5, #128	; 0x80
     9e0:	960e      	str	r6, [sp, #56]	; 0x38
     9e2:	970f      	str	r7, [sp, #60]	; 0x3c
     9e4:	ab10      	add	r3, sp, #64	; 0x40
     9e6:	2100      	movs	r1, #0
     9e8:	2400      	movs	r4, #0
     9ea:	4809      	ldr	r0, [pc, #36]	; (a10 <__main_stack_size+0x210>)
     9ec:	046d      	lsls	r5, r5, #17
     9ee:	464e      	mov	r6, r9
     9f0:	e019      	b.n	a26 <__main_stack_size+0x226>
     9f2:	46c0      	nop			; (mov r8, r8)
     9f4:	fffffd8c 	.word	0xfffffd8c
     9f8:	00002dac 	.word	0x00002dac
     9fc:	3ffffffe 	.word	0x3ffffffe
     a00:	1fffffff 	.word	0x1fffffff
     a04:	3e700000 	.word	0x3e700000
     a08:	41700000 	.word	0x41700000
     a0c:	40200000 	.word	0x40200000
     a10:	00ffffff 	.word	0x00ffffff
     a14:	2a00      	cmp	r2, #0
     a16:	d002      	beq.n	a1e <__main_stack_size+0x21e>
     a18:	1aaa      	subs	r2, r5, r2
     a1a:	601a      	str	r2, [r3, #0]
     a1c:	3401      	adds	r4, #1
     a1e:	3101      	adds	r1, #1
     a20:	3304      	adds	r3, #4
     a22:	428e      	cmp	r6, r1
     a24:	dd09      	ble.n	a3a <__main_stack_size+0x23a>
     a26:	681a      	ldr	r2, [r3, #0]
     a28:	2c00      	cmp	r4, #0
     a2a:	d0f3      	beq.n	a14 <__main_stack_size+0x214>
     a2c:	1a82      	subs	r2, r0, r2
     a2e:	3101      	adds	r1, #1
     a30:	601a      	str	r2, [r3, #0]
     a32:	2401      	movs	r4, #1
     a34:	3304      	adds	r3, #4
     a36:	428e      	cmp	r6, r1
     a38:	dcf5      	bgt.n	a26 <__main_stack_size+0x226>
     a3a:	46b1      	mov	r9, r6
     a3c:	9e0e      	ldr	r6, [sp, #56]	; 0x38
     a3e:	9f0f      	ldr	r7, [sp, #60]	; 0x3c
     a40:	9b04      	ldr	r3, [sp, #16]
     a42:	2b00      	cmp	r3, #0
     a44:	dd0e      	ble.n	a64 <__main_stack_size+0x264>
     a46:	2b01      	cmp	r3, #1
     a48:	d100      	bne.n	a4c <__main_stack_size+0x24c>
     a4a:	e187      	b.n	d5c <__main_stack_size+0x55c>
     a4c:	2b02      	cmp	r3, #2
     a4e:	d109      	bne.n	a64 <__main_stack_size+0x264>
     a50:	464b      	mov	r3, r9
     a52:	1e5a      	subs	r2, r3, #1
     a54:	0092      	lsls	r2, r2, #2
     a56:	ab10      	add	r3, sp, #64	; 0x40
     a58:	589b      	ldr	r3, [r3, r2]
     a5a:	a910      	add	r1, sp, #64	; 0x40
     a5c:	930e      	str	r3, [sp, #56]	; 0x38
     a5e:	029b      	lsls	r3, r3, #10
     a60:	0a9b      	lsrs	r3, r3, #10
     a62:	508b      	str	r3, [r1, r2]
     a64:	9b05      	ldr	r3, [sp, #20]
     a66:	2b02      	cmp	r3, #2
     a68:	d07a      	beq.n	b60 <__main_stack_size+0x360>
     a6a:	1c30      	adds	r0, r6, #0
     a6c:	1c39      	adds	r1, r7, #0
     a6e:	2200      	movs	r2, #0
     a70:	2300      	movs	r3, #0
     a72:	f000 fdc3 	bl	15fc <__aeabi_dcmpeq>
     a76:	2800      	cmp	r0, #0
     a78:	d100      	bne.n	a7c <__main_stack_size+0x27c>
     a7a:	e092      	b.n	ba2 <__main_stack_size+0x3a2>
     a7c:	464b      	mov	r3, r9
     a7e:	1e59      	subs	r1, r3, #1
     a80:	9b07      	ldr	r3, [sp, #28]
     a82:	428b      	cmp	r3, r1
     a84:	dc0f      	bgt.n	aa6 <__main_stack_size+0x2a6>
     a86:	aa10      	add	r2, sp, #64	; 0x40
     a88:	4694      	mov	ip, r2
     a8a:	2200      	movs	r2, #0
     a8c:	4bce      	ldr	r3, [pc, #824]	; (dc8 <__main_stack_size+0x5c8>)
     a8e:	980d      	ldr	r0, [sp, #52]	; 0x34
     a90:	444b      	add	r3, r9
     a92:	009b      	lsls	r3, r3, #2
     a94:	4463      	add	r3, ip
     a96:	681c      	ldr	r4, [r3, #0]
     a98:	3b04      	subs	r3, #4
     a9a:	4322      	orrs	r2, r4
     a9c:	4283      	cmp	r3, r0
     a9e:	d1fa      	bne.n	a96 <__main_stack_size+0x296>
     aa0:	2a00      	cmp	r2, #0
     aa2:	d000      	beq.n	aa6 <__main_stack_size+0x2a6>
     aa4:	e1e5      	b.n	e72 <__main_stack_size+0x672>
     aa6:	9b07      	ldr	r3, [sp, #28]
     aa8:	aa10      	add	r2, sp, #64	; 0x40
     aaa:	3b01      	subs	r3, #1
     aac:	009b      	lsls	r3, r3, #2
     aae:	58d3      	ldr	r3, [r2, r3]
     ab0:	2b00      	cmp	r3, #0
     ab2:	d000      	beq.n	ab6 <__main_stack_size+0x2b6>
     ab4:	e2aa      	b.n	100c <__ram_size+0xc>
     ab6:	2201      	movs	r2, #1
     ab8:	9b0b      	ldr	r3, [sp, #44]	; 0x2c
     aba:	3b04      	subs	r3, #4
     abc:	6859      	ldr	r1, [r3, #4]
     abe:	3201      	adds	r2, #1
     ac0:	2900      	cmp	r1, #0
     ac2:	d0fa      	beq.n	aba <__main_stack_size+0x2ba>
     ac4:	464b      	mov	r3, r9
     ac6:	444a      	add	r2, r9
     ac8:	3301      	adds	r3, #1
     aca:	9205      	str	r2, [sp, #20]
     acc:	4293      	cmp	r3, r2
     ace:	dc41      	bgt.n	b54 <__main_stack_size+0x354>
     ad0:	99a7      	ldr	r1, [sp, #668]	; 0x29c
     ad2:	9a0c      	ldr	r2, [sp, #48]	; 0x30
     ad4:	468a      	mov	sl, r1
     ad6:	189a      	adds	r2, r3, r2
     ad8:	0092      	lsls	r2, r2, #2
     ada:	4492      	add	sl, r2
     adc:	9a0a      	ldr	r2, [sp, #40]	; 0x28
     ade:	9906      	ldr	r1, [sp, #24]
     ae0:	4691      	mov	r9, r2
     ae2:	9a00      	ldr	r2, [sp, #0]
     ae4:	468b      	mov	fp, r1
     ae6:	4694      	mov	ip, r2
     ae8:	9a09      	ldr	r2, [sp, #36]	; 0x24
     aea:	4463      	add	r3, ip
     aec:	1a9b      	subs	r3, r3, r2
     aee:	aa24      	add	r2, sp, #144	; 0x90
     af0:	4690      	mov	r8, r2
     af2:	00db      	lsls	r3, r3, #3
     af4:	4498      	add	r8, r3
     af6:	9b05      	ldr	r3, [sp, #20]
     af8:	44d9      	add	r9, fp
     afa:	00db      	lsls	r3, r3, #3
     afc:	449b      	add	fp, r3
     afe:	9b03      	ldr	r3, [sp, #12]
     b00:	4443      	add	r3, r8
     b02:	1c1c      	adds	r4, r3, #0
     b04:	4653      	mov	r3, sl
     b06:	6818      	ldr	r0, [r3, #0]
     b08:	f002 f832 	bl	2b70 <__aeabi_i2d>
     b0c:	9b00      	ldr	r3, [sp, #0]
     b0e:	6020      	str	r0, [r4, #0]
     b10:	6061      	str	r1, [r4, #4]
     b12:	2b00      	cmp	r3, #0
     b14:	db21      	blt.n	b5a <__main_stack_size+0x35a>
     b16:	2600      	movs	r6, #0
     b18:	2700      	movs	r7, #0
     b1a:	9d02      	ldr	r5, [sp, #8]
     b1c:	6822      	ldr	r2, [r4, #0]
     b1e:	6863      	ldr	r3, [r4, #4]
     b20:	cd03      	ldmia	r5!, {r0, r1}
     b22:	f001 f9db 	bl	1edc <__aeabi_dmul>
     b26:	1c02      	adds	r2, r0, #0
     b28:	1c0b      	adds	r3, r1, #0
     b2a:	1c30      	adds	r0, r6, #0
     b2c:	1c39      	adds	r1, r7, #0
     b2e:	f000 fd93 	bl	1658 <__aeabi_dadd>
     b32:	3c08      	subs	r4, #8
     b34:	1c06      	adds	r6, r0, #0
     b36:	1c0f      	adds	r7, r1, #0
     b38:	4544      	cmp	r4, r8
     b3a:	d1ef      	bne.n	b1c <__main_stack_size+0x31c>
     b3c:	464b      	mov	r3, r9
     b3e:	609e      	str	r6, [r3, #8]
     b40:	60df      	str	r7, [r3, #12]
     b42:	2304      	movs	r3, #4
     b44:	469c      	mov	ip, r3
     b46:	3304      	adds	r3, #4
     b48:	44e2      	add	sl, ip
     b4a:	469c      	mov	ip, r3
     b4c:	44e1      	add	r9, ip
     b4e:	44e0      	add	r8, ip
     b50:	45d9      	cmp	r9, fp
     b52:	d1d4      	bne.n	afe <__main_stack_size+0x2fe>
     b54:	9b05      	ldr	r3, [sp, #20]
     b56:	4699      	mov	r9, r3
     b58:	e6b8      	b.n	8cc <__main_stack_size+0xcc>
     b5a:	2600      	movs	r6, #0
     b5c:	2700      	movs	r7, #0
     b5e:	e7ed      	b.n	b3c <__main_stack_size+0x33c>
     b60:	1c32      	adds	r2, r6, #0
     b62:	1c3b      	adds	r3, r7, #0
     b64:	2000      	movs	r0, #0
     b66:	4999      	ldr	r1, [pc, #612]	; (dcc <__main_stack_size+0x5cc>)
     b68:	f001 fc52 	bl	2410 <__aeabi_dsub>
     b6c:	1c06      	adds	r6, r0, #0
     b6e:	1c0f      	adds	r7, r1, #0
     b70:	2c00      	cmp	r4, #0
     b72:	d100      	bne.n	b76 <__main_stack_size+0x376>
     b74:	e779      	b.n	a6a <__main_stack_size+0x26a>
     b76:	9a04      	ldr	r2, [sp, #16]
     b78:	2000      	movs	r0, #0
     b7a:	4994      	ldr	r1, [pc, #592]	; (dcc <__main_stack_size+0x5cc>)
     b7c:	f000 fbb8 	bl	12f0 <scalbn>
     b80:	1c02      	adds	r2, r0, #0
     b82:	1c0b      	adds	r3, r1, #0
     b84:	1c30      	adds	r0, r6, #0
     b86:	1c39      	adds	r1, r7, #0
     b88:	f001 fc42 	bl	2410 <__aeabi_dsub>
     b8c:	1c06      	adds	r6, r0, #0
     b8e:	1c0f      	adds	r7, r1, #0
     b90:	1c30      	adds	r0, r6, #0
     b92:	1c39      	adds	r1, r7, #0
     b94:	2200      	movs	r2, #0
     b96:	2300      	movs	r3, #0
     b98:	f000 fd30 	bl	15fc <__aeabi_dcmpeq>
     b9c:	2800      	cmp	r0, #0
     b9e:	d000      	beq.n	ba2 <__main_stack_size+0x3a2>
     ba0:	e76c      	b.n	a7c <__main_stack_size+0x27c>
     ba2:	4653      	mov	r3, sl
     ba4:	9309      	str	r3, [sp, #36]	; 0x24
     ba6:	9b04      	ldr	r3, [sp, #16]
     ba8:	1c30      	adds	r0, r6, #0
     baa:	425a      	negs	r2, r3
     bac:	1c39      	adds	r1, r7, #0
     bae:	f000 fb9f 	bl	12f0 <scalbn>
     bb2:	2200      	movs	r2, #0
     bb4:	4b86      	ldr	r3, [pc, #536]	; (dd0 <__main_stack_size+0x5d0>)
     bb6:	1c04      	adds	r4, r0, #0
     bb8:	1c0d      	adds	r5, r1, #0
     bba:	f000 fd43 	bl	1644 <__aeabi_dcmpge>
     bbe:	2800      	cmp	r0, #0
     bc0:	d100      	bne.n	bc4 <__main_stack_size+0x3c4>
     bc2:	e22d      	b.n	1020 <__ram_size+0x20>
     bc4:	2200      	movs	r2, #0
     bc6:	4b83      	ldr	r3, [pc, #524]	; (dd4 <__main_stack_size+0x5d4>)
     bc8:	1c20      	adds	r0, r4, #0
     bca:	1c29      	adds	r1, r5, #0
     bcc:	f001 f986 	bl	1edc <__aeabi_dmul>
     bd0:	f001 ff98 	bl	2b04 <__aeabi_d2iz>
     bd4:	464b      	mov	r3, r9
     bd6:	1c06      	adds	r6, r0, #0
     bd8:	009f      	lsls	r7, r3, #2
     bda:	f001 ffc9 	bl	2b70 <__aeabi_i2d>
     bde:	2200      	movs	r2, #0
     be0:	4b7b      	ldr	r3, [pc, #492]	; (dd0 <__main_stack_size+0x5d0>)
     be2:	f001 f97b 	bl	1edc <__aeabi_dmul>
     be6:	1c02      	adds	r2, r0, #0
     be8:	1c0b      	adds	r3, r1, #0
     bea:	1c20      	adds	r0, r4, #0
     bec:	1c29      	adds	r1, r5, #0
     bee:	f001 fc0f 	bl	2410 <__aeabi_dsub>
     bf2:	f001 ff87 	bl	2b04 <__aeabi_d2iz>
     bf6:	ab10      	add	r3, sp, #64	; 0x40
     bf8:	51d8      	str	r0, [r3, r7]
     bfa:	2301      	movs	r3, #1
     bfc:	444b      	add	r3, r9
     bfe:	4698      	mov	r8, r3
     c00:	9b04      	ldr	r3, [sp, #16]
     c02:	aa10      	add	r2, sp, #64	; 0x40
     c04:	3318      	adds	r3, #24
     c06:	9304      	str	r3, [sp, #16]
     c08:	4643      	mov	r3, r8
     c0a:	009b      	lsls	r3, r3, #2
     c0c:	50d6      	str	r6, [r2, r3]
     c0e:	2000      	movs	r0, #0
     c10:	496e      	ldr	r1, [pc, #440]	; (dcc <__main_stack_size+0x5cc>)
     c12:	9a04      	ldr	r2, [sp, #16]
     c14:	f000 fb6c 	bl	12f0 <scalbn>
     c18:	4643      	mov	r3, r8
     c1a:	1c04      	adds	r4, r0, #0
     c1c:	1c0d      	adds	r5, r1, #0
     c1e:	2b00      	cmp	r3, #0
     c20:	da00      	bge.n	c24 <__main_stack_size+0x424>
     c22:	e0c8      	b.n	db6 <__main_stack_size+0x5b6>
     c24:	009f      	lsls	r7, r3, #2
     c26:	ab10      	add	r3, sp, #64	; 0x40
     c28:	469c      	mov	ip, r3
     c2a:	4643      	mov	r3, r8
     c2c:	00db      	lsls	r3, r3, #3
     c2e:	4467      	add	r7, ip
     c30:	469c      	mov	ip, r3
     c32:	9303      	str	r3, [sp, #12]
     c34:	ab72      	add	r3, sp, #456	; 0x1c8
     c36:	4699      	mov	r9, r3
     c38:	9e06      	ldr	r6, [sp, #24]
     c3a:	4466      	add	r6, ip
     c3c:	9600      	str	r6, [sp, #0]
     c3e:	6838      	ldr	r0, [r7, #0]
     c40:	f001 ff96 	bl	2b70 <__aeabi_i2d>
     c44:	1c22      	adds	r2, r4, #0
     c46:	1c2b      	adds	r3, r5, #0
     c48:	f001 f948 	bl	1edc <__aeabi_dmul>
     c4c:	2200      	movs	r2, #0
     c4e:	6030      	str	r0, [r6, #0]
     c50:	6071      	str	r1, [r6, #4]
     c52:	4b60      	ldr	r3, [pc, #384]	; (dd4 <__main_stack_size+0x5d4>)
     c54:	1c20      	adds	r0, r4, #0
     c56:	1c29      	adds	r1, r5, #0
     c58:	f001 f940 	bl	1edc <__aeabi_dmul>
     c5c:	3e08      	subs	r6, #8
     c5e:	1c04      	adds	r4, r0, #0
     c60:	1c0d      	adds	r5, r1, #0
     c62:	3f04      	subs	r7, #4
     c64:	454e      	cmp	r6, r9
     c66:	d1ea      	bne.n	c3e <__main_stack_size+0x43e>
     c68:	4643      	mov	r3, r8
     c6a:	3301      	adds	r3, #1
     c6c:	9302      	str	r3, [sp, #8]
     c6e:	2300      	movs	r3, #0
     c70:	469b      	mov	fp, r3
     c72:	ab4c      	add	r3, sp, #304	; 0x130
     c74:	4699      	mov	r9, r3
     c76:	9b07      	ldr	r3, [sp, #28]
     c78:	469a      	mov	sl, r3
     c7a:	4643      	mov	r3, r8
     c7c:	9304      	str	r3, [sp, #16]
     c7e:	4653      	mov	r3, sl
     c80:	2b00      	cmp	r3, #0
     c82:	da00      	bge.n	c86 <__main_stack_size+0x486>
     c84:	e094      	b.n	db0 <__main_stack_size+0x5b0>
     c86:	465b      	mov	r3, fp
     c88:	2b00      	cmp	r3, #0
     c8a:	da00      	bge.n	c8e <__main_stack_size+0x48e>
     c8c:	e090      	b.n	db0 <__main_stack_size+0x5b0>
     c8e:	4b52      	ldr	r3, [pc, #328]	; (dd8 <__main_stack_size+0x5d8>)
     c90:	9d00      	ldr	r5, [sp, #0]
     c92:	4698      	mov	r8, r3
     c94:	2600      	movs	r6, #0
     c96:	2700      	movs	r7, #0
     c98:	2400      	movs	r4, #0
     c9a:	e005      	b.n	ca8 <__main_stack_size+0x4a8>
     c9c:	2308      	movs	r3, #8
     c9e:	469c      	mov	ip, r3
     ca0:	3508      	adds	r5, #8
     ca2:	44e0      	add	r8, ip
     ca4:	455c      	cmp	r4, fp
     ca6:	dc11      	bgt.n	ccc <__main_stack_size+0x4cc>
     ca8:	4643      	mov	r3, r8
     caa:	6818      	ldr	r0, [r3, #0]
     cac:	6859      	ldr	r1, [r3, #4]
     cae:	682a      	ldr	r2, [r5, #0]
     cb0:	686b      	ldr	r3, [r5, #4]
     cb2:	f001 f913 	bl	1edc <__aeabi_dmul>
     cb6:	1c02      	adds	r2, r0, #0
     cb8:	1c0b      	adds	r3, r1, #0
     cba:	1c30      	adds	r0, r6, #0
     cbc:	1c39      	adds	r1, r7, #0
     cbe:	f000 fccb 	bl	1658 <__aeabi_dadd>
     cc2:	3401      	adds	r4, #1
     cc4:	1c06      	adds	r6, r0, #0
     cc6:	1c0f      	adds	r7, r1, #0
     cc8:	45a2      	cmp	sl, r4
     cca:	dae7      	bge.n	c9c <__main_stack_size+0x49c>
     ccc:	465b      	mov	r3, fp
     cce:	00db      	lsls	r3, r3, #3
     cd0:	444b      	add	r3, r9
     cd2:	601e      	str	r6, [r3, #0]
     cd4:	605f      	str	r7, [r3, #4]
     cd6:	2301      	movs	r3, #1
     cd8:	469c      	mov	ip, r3
     cda:	9b00      	ldr	r3, [sp, #0]
     cdc:	44e3      	add	fp, ip
     cde:	3b08      	subs	r3, #8
     ce0:	9300      	str	r3, [sp, #0]
     ce2:	9b02      	ldr	r3, [sp, #8]
     ce4:	459b      	cmp	fp, r3
     ce6:	d1ca      	bne.n	c7e <__main_stack_size+0x47e>
     ce8:	9b04      	ldr	r3, [sp, #16]
     cea:	4698      	mov	r8, r3
     cec:	9ba6      	ldr	r3, [sp, #664]	; 0x298
     cee:	2b02      	cmp	r3, #2
     cf0:	dd00      	ble.n	cf4 <__main_stack_size+0x4f4>
     cf2:	e100      	b.n	ef6 <__main_stack_size+0x6f6>
     cf4:	2b00      	cmp	r3, #0
     cf6:	dd00      	ble.n	cfa <__main_stack_size+0x4fa>
     cf8:	e0d7      	b.n	eaa <__main_stack_size+0x6aa>
     cfa:	d118      	bne.n	d2e <__main_stack_size+0x52e>
     cfc:	9b03      	ldr	r3, [sp, #12]
     cfe:	2000      	movs	r0, #0
     d00:	444b      	add	r3, r9
     d02:	1c1c      	adds	r4, r3, #0
     d04:	2100      	movs	r1, #0
     d06:	4645      	mov	r5, r8
     d08:	6822      	ldr	r2, [r4, #0]
     d0a:	6863      	ldr	r3, [r4, #4]
     d0c:	f000 fca4 	bl	1658 <__aeabi_dadd>
     d10:	3c08      	subs	r4, #8
     d12:	3d01      	subs	r5, #1
     d14:	d2f8      	bcs.n	d08 <__main_stack_size+0x508>
     d16:	9b05      	ldr	r3, [sp, #20]
     d18:	2b00      	cmp	r3, #0
     d1a:	d003      	beq.n	d24 <__main_stack_size+0x524>
     d1c:	2380      	movs	r3, #128	; 0x80
     d1e:	061b      	lsls	r3, r3, #24
     d20:	469c      	mov	ip, r3
     d22:	4461      	add	r1, ip
     d24:	1c0b      	adds	r3, r1, #0
     d26:	1c02      	adds	r2, r0, #0
     d28:	9908      	ldr	r1, [sp, #32]
     d2a:	600a      	str	r2, [r1, #0]
     d2c:	604b      	str	r3, [r1, #4]
     d2e:	2007      	movs	r0, #7
     d30:	9b09      	ldr	r3, [sp, #36]	; 0x24
     d32:	4018      	ands	r0, r3
     d34:	239d      	movs	r3, #157	; 0x9d
     d36:	009b      	lsls	r3, r3, #2
     d38:	449d      	add	sp, r3
     d3a:	bc3c      	pop	{r2, r3, r4, r5}
     d3c:	4690      	mov	r8, r2
     d3e:	4699      	mov	r9, r3
     d40:	46a2      	mov	sl, r4
     d42:	46ab      	mov	fp, r5
     d44:	bdf0      	pop	{r4, r5, r6, r7, pc}
     d46:	9b04      	ldr	r3, [sp, #16]
     d48:	2b00      	cmp	r3, #0
     d4a:	d112      	bne.n	d72 <__main_stack_size+0x572>
     d4c:	464b      	mov	r3, r9
     d4e:	3b01      	subs	r3, #1
     d50:	009b      	lsls	r3, r3, #2
     d52:	aa10      	add	r2, sp, #64	; 0x40
     d54:	58d5      	ldr	r5, [r2, r3]
     d56:	15eb      	asrs	r3, r5, #23
     d58:	9305      	str	r3, [sp, #20]
     d5a:	e636      	b.n	9ca <__main_stack_size+0x1ca>
     d5c:	464b      	mov	r3, r9
     d5e:	1e5a      	subs	r2, r3, #1
     d60:	0092      	lsls	r2, r2, #2
     d62:	ab10      	add	r3, sp, #64	; 0x40
     d64:	589b      	ldr	r3, [r3, r2]
     d66:	a910      	add	r1, sp, #64	; 0x40
     d68:	930e      	str	r3, [sp, #56]	; 0x38
     d6a:	025b      	lsls	r3, r3, #9
     d6c:	0a5b      	lsrs	r3, r3, #9
     d6e:	508b      	str	r3, [r1, r2]
     d70:	e678      	b.n	a64 <__main_stack_size+0x264>
     d72:	1c30      	adds	r0, r6, #0
     d74:	2200      	movs	r2, #0
     d76:	4b19      	ldr	r3, [pc, #100]	; (ddc <__main_stack_size+0x5dc>)
     d78:	f000 fc64 	bl	1644 <__aeabi_dcmpge>
     d7c:	2800      	cmp	r0, #0
     d7e:	d105      	bne.n	d8c <__main_stack_size+0x58c>
     d80:	2300      	movs	r3, #0
     d82:	9305      	str	r3, [sp, #20]
     d84:	e671      	b.n	a6a <__main_stack_size+0x26a>
     d86:	2600      	movs	r6, #0
     d88:	2700      	movs	r7, #0
     d8a:	e587      	b.n	89c <__main_stack_size+0x9c>
     d8c:	2301      	movs	r3, #1
     d8e:	469c      	mov	ip, r3
     d90:	3301      	adds	r3, #1
     d92:	9305      	str	r3, [sp, #20]
     d94:	464b      	mov	r3, r9
     d96:	44e2      	add	sl, ip
     d98:	2b00      	cmp	r3, #0
     d9a:	dd00      	ble.n	d9e <__main_stack_size+0x59e>
     d9c:	e61f      	b.n	9de <__main_stack_size+0x1de>
     d9e:	1c32      	adds	r2, r6, #0
     da0:	1c3b      	adds	r3, r7, #0
     da2:	2000      	movs	r0, #0
     da4:	4909      	ldr	r1, [pc, #36]	; (dcc <__main_stack_size+0x5cc>)
     da6:	f001 fb33 	bl	2410 <__aeabi_dsub>
     daa:	1c06      	adds	r6, r0, #0
     dac:	1c0f      	adds	r7, r1, #0
     dae:	e65c      	b.n	a6a <__main_stack_size+0x26a>
     db0:	2600      	movs	r6, #0
     db2:	2700      	movs	r7, #0
     db4:	e78a      	b.n	ccc <__main_stack_size+0x4cc>
     db6:	9ba6      	ldr	r3, [sp, #664]	; 0x298
     db8:	2b02      	cmp	r3, #2
     dba:	dc39      	bgt.n	e30 <__main_stack_size+0x630>
     dbc:	2b00      	cmp	r3, #0
     dbe:	dc0f      	bgt.n	de0 <__main_stack_size+0x5e0>
     dc0:	d1b5      	bne.n	d2e <__main_stack_size+0x52e>
     dc2:	2000      	movs	r0, #0
     dc4:	2100      	movs	r1, #0
     dc6:	e7a6      	b.n	d16 <__main_stack_size+0x516>
     dc8:	3fffffff 	.word	0x3fffffff
     dcc:	3ff00000 	.word	0x3ff00000
     dd0:	41700000 	.word	0x41700000
     dd4:	3e700000 	.word	0x3e700000
     dd8:	00002dc0 	.word	0x00002dc0
     ddc:	3fe00000 	.word	0x3fe00000
     de0:	9905      	ldr	r1, [sp, #20]
     de2:	2200      	movs	r2, #0
     de4:	2300      	movs	r3, #0
     de6:	2900      	cmp	r1, #0
     de8:	d073      	beq.n	ed2 <__main_stack_size+0x6d2>
     dea:	2180      	movs	r1, #128	; 0x80
     dec:	9808      	ldr	r0, [sp, #32]
     dee:	0609      	lsls	r1, r1, #24
     df0:	1859      	adds	r1, r3, r1
     df2:	6002      	str	r2, [r0, #0]
     df4:	6041      	str	r1, [r0, #4]
     df6:	984c      	ldr	r0, [sp, #304]	; 0x130
     df8:	994d      	ldr	r1, [sp, #308]	; 0x134
     dfa:	f001 fb09 	bl	2410 <__aeabi_dsub>
     dfe:	4643      	mov	r3, r8
     e00:	2b00      	cmp	r3, #0
     e02:	dd0b      	ble.n	e1c <__main_stack_size+0x61c>
     e04:	2401      	movs	r4, #1
     e06:	4646      	mov	r6, r8
     e08:	ad4e      	add	r5, sp, #312	; 0x138
     e0a:	cd0c      	ldmia	r5!, {r2, r3}
     e0c:	3401      	adds	r4, #1
     e0e:	f000 fc23 	bl	1658 <__aeabi_dadd>
     e12:	42a6      	cmp	r6, r4
     e14:	daf9      	bge.n	e0a <__main_stack_size+0x60a>
     e16:	9b05      	ldr	r3, [sp, #20]
     e18:	2b00      	cmp	r3, #0
     e1a:	d003      	beq.n	e24 <__main_stack_size+0x624>
     e1c:	2380      	movs	r3, #128	; 0x80
     e1e:	061b      	lsls	r3, r3, #24
     e20:	469c      	mov	ip, r3
     e22:	4461      	add	r1, ip
     e24:	1c0b      	adds	r3, r1, #0
     e26:	1c02      	adds	r2, r0, #0
     e28:	9908      	ldr	r1, [sp, #32]
     e2a:	608a      	str	r2, [r1, #8]
     e2c:	60cb      	str	r3, [r1, #12]
     e2e:	e77e      	b.n	d2e <__main_stack_size+0x52e>
     e30:	ab4c      	add	r3, sp, #304	; 0x130
     e32:	4699      	mov	r9, r3
     e34:	9ba6      	ldr	r3, [sp, #664]	; 0x298
     e36:	2b03      	cmp	r3, #3
     e38:	d000      	beq.n	e3c <__main_stack_size+0x63c>
     e3a:	e778      	b.n	d2e <__main_stack_size+0x52e>
     e3c:	9b05      	ldr	r3, [sp, #20]
     e3e:	2000      	movs	r0, #0
     e40:	2100      	movs	r1, #0
     e42:	2b00      	cmp	r3, #0
     e44:	d100      	bne.n	e48 <__main_stack_size+0x648>
     e46:	e0d0      	b.n	fea <__main_stack_size+0x7ea>
     e48:	2480      	movs	r4, #128	; 0x80
     e4a:	9a08      	ldr	r2, [sp, #32]
     e4c:	9b4c      	ldr	r3, [sp, #304]	; 0x130
     e4e:	0624      	lsls	r4, r4, #24
     e50:	6013      	str	r3, [r2, #0]
     e52:	464b      	mov	r3, r9
     e54:	46a4      	mov	ip, r4
     e56:	685b      	ldr	r3, [r3, #4]
     e58:	4461      	add	r1, ip
     e5a:	4463      	add	r3, ip
     e5c:	6053      	str	r3, [r2, #4]
     e5e:	464b      	mov	r3, r9
     e60:	689b      	ldr	r3, [r3, #8]
     e62:	6110      	str	r0, [r2, #16]
     e64:	6093      	str	r3, [r2, #8]
     e66:	464b      	mov	r3, r9
     e68:	68db      	ldr	r3, [r3, #12]
     e6a:	6151      	str	r1, [r2, #20]
     e6c:	4463      	add	r3, ip
     e6e:	60d3      	str	r3, [r2, #12]
     e70:	e75d      	b.n	d2e <__main_stack_size+0x52e>
     e72:	4653      	mov	r3, sl
     e74:	4688      	mov	r8, r1
     e76:	9309      	str	r3, [sp, #36]	; 0x24
     e78:	4643      	mov	r3, r8
     e7a:	9904      	ldr	r1, [sp, #16]
     e7c:	009b      	lsls	r3, r3, #2
     e7e:	aa10      	add	r2, sp, #64	; 0x40
     e80:	58d3      	ldr	r3, [r2, r3]
     e82:	3918      	subs	r1, #24
     e84:	9104      	str	r1, [sp, #16]
     e86:	2b00      	cmp	r3, #0
     e88:	d000      	beq.n	e8c <__main_stack_size+0x68c>
     e8a:	e6c0      	b.n	c0e <__main_stack_size+0x40e>
     e8c:	4694      	mov	ip, r2
     e8e:	4642      	mov	r2, r8
     e90:	4b68      	ldr	r3, [pc, #416]	; (1034 <__ram_size+0x34>)
     e92:	4443      	add	r3, r8
     e94:	009b      	lsls	r3, r3, #2
     e96:	4463      	add	r3, ip
     e98:	3b04      	subs	r3, #4
     e9a:	6858      	ldr	r0, [r3, #4]
     e9c:	3a01      	subs	r2, #1
     e9e:	3918      	subs	r1, #24
     ea0:	2800      	cmp	r0, #0
     ea2:	d0f9      	beq.n	e98 <__main_stack_size+0x698>
     ea4:	4690      	mov	r8, r2
     ea6:	9104      	str	r1, [sp, #16]
     ea8:	e6b1      	b.n	c0e <__main_stack_size+0x40e>
     eaa:	9b03      	ldr	r3, [sp, #12]
     eac:	2200      	movs	r2, #0
     eae:	444b      	add	r3, r9
     eb0:	1c1c      	adds	r4, r3, #0
     eb2:	2300      	movs	r3, #0
     eb4:	ad4a      	add	r5, sp, #296	; 0x128
     eb6:	1c10      	adds	r0, r2, #0
     eb8:	1c19      	adds	r1, r3, #0
     eba:	6822      	ldr	r2, [r4, #0]
     ebc:	6863      	ldr	r3, [r4, #4]
     ebe:	f000 fbcb 	bl	1658 <__aeabi_dadd>
     ec2:	3c08      	subs	r4, #8
     ec4:	1c02      	adds	r2, r0, #0
     ec6:	1c0b      	adds	r3, r1, #0
     ec8:	42ac      	cmp	r4, r5
     eca:	d1f4      	bne.n	eb6 <__main_stack_size+0x6b6>
     ecc:	9905      	ldr	r1, [sp, #20]
     ece:	2900      	cmp	r1, #0
     ed0:	d18b      	bne.n	dea <__main_stack_size+0x5ea>
     ed2:	1c19      	adds	r1, r3, #0
     ed4:	1c10      	adds	r0, r2, #0
     ed6:	9c08      	ldr	r4, [sp, #32]
     ed8:	6020      	str	r0, [r4, #0]
     eda:	6061      	str	r1, [r4, #4]
     edc:	984c      	ldr	r0, [sp, #304]	; 0x130
     ede:	994d      	ldr	r1, [sp, #308]	; 0x134
     ee0:	f001 fa96 	bl	2410 <__aeabi_dsub>
     ee4:	4643      	mov	r3, r8
     ee6:	2b00      	cmp	r3, #0
     ee8:	dc8c      	bgt.n	e04 <__main_stack_size+0x604>
     eea:	1c0b      	adds	r3, r1, #0
     eec:	1c02      	adds	r2, r0, #0
     eee:	9908      	ldr	r1, [sp, #32]
     ef0:	608a      	str	r2, [r1, #8]
     ef2:	60cb      	str	r3, [r1, #12]
     ef4:	e71b      	b.n	d2e <__main_stack_size+0x52e>
     ef6:	9ba6      	ldr	r3, [sp, #664]	; 0x298
     ef8:	2b03      	cmp	r3, #3
     efa:	d000      	beq.n	efe <__main_stack_size+0x6fe>
     efc:	e717      	b.n	d2e <__main_stack_size+0x52e>
     efe:	4643      	mov	r3, r8
     f00:	2b00      	cmp	r3, #0
     f02:	dd9b      	ble.n	e3c <__main_stack_size+0x63c>
     f04:	9b03      	ldr	r3, [sp, #12]
     f06:	444b      	add	r3, r9
     f08:	681e      	ldr	r6, [r3, #0]
     f0a:	685f      	ldr	r7, [r3, #4]
     f0c:	4b4a      	ldr	r3, [pc, #296]	; (1038 <__ram_size+0x38>)
     f0e:	4443      	add	r3, r8
     f10:	469b      	mov	fp, r3
     f12:	00db      	lsls	r3, r3, #3
     f14:	444b      	add	r3, r9
     f16:	469a      	mov	sl, r3
     f18:	4653      	mov	r3, sl
     f1a:	1c30      	adds	r0, r6, #0
     f1c:	685c      	ldr	r4, [r3, #4]
     f1e:	681b      	ldr	r3, [r3, #0]
     f20:	1c39      	adds	r1, r7, #0
     f22:	9300      	str	r3, [sp, #0]
     f24:	9401      	str	r4, [sp, #4]
     f26:	1c1a      	adds	r2, r3, #0
     f28:	1c23      	adds	r3, r4, #0
     f2a:	f000 fb95 	bl	1658 <__aeabi_dadd>
     f2e:	1c04      	adds	r4, r0, #0
     f30:	1c0d      	adds	r5, r1, #0
     f32:	9800      	ldr	r0, [sp, #0]
     f34:	9901      	ldr	r1, [sp, #4]
     f36:	1c22      	adds	r2, r4, #0
     f38:	1c2b      	adds	r3, r5, #0
     f3a:	f001 fa69 	bl	2410 <__aeabi_dsub>
     f3e:	1c0b      	adds	r3, r1, #0
     f40:	1c02      	adds	r2, r0, #0
     f42:	1c39      	adds	r1, r7, #0
     f44:	1c30      	adds	r0, r6, #0
     f46:	f000 fb87 	bl	1658 <__aeabi_dadd>
     f4a:	4653      	mov	r3, sl
     f4c:	6098      	str	r0, [r3, #8]
     f4e:	60d9      	str	r1, [r3, #12]
     f50:	601c      	str	r4, [r3, #0]
     f52:	605d      	str	r5, [r3, #4]
     f54:	2308      	movs	r3, #8
     f56:	425b      	negs	r3, r3
     f58:	469c      	mov	ip, r3
     f5a:	ab4a      	add	r3, sp, #296	; 0x128
     f5c:	44e2      	add	sl, ip
     f5e:	1c26      	adds	r6, r4, #0
     f60:	1c2f      	adds	r7, r5, #0
     f62:	459a      	cmp	sl, r3
     f64:	d1d8      	bne.n	f18 <__main_stack_size+0x718>
     f66:	4643      	mov	r3, r8
     f68:	2b01      	cmp	r3, #1
     f6a:	dc00      	bgt.n	f6e <__main_stack_size+0x76e>
     f6c:	e766      	b.n	e3c <__main_stack_size+0x63c>
     f6e:	9b03      	ldr	r3, [sp, #12]
     f70:	46ca      	mov	sl, r9
     f72:	444b      	add	r3, r9
     f74:	681e      	ldr	r6, [r3, #0]
     f76:	685f      	ldr	r7, [r3, #4]
     f78:	465b      	mov	r3, fp
     f7a:	00db      	lsls	r3, r3, #3
     f7c:	4698      	mov	r8, r3
     f7e:	44c2      	add	sl, r8
     f80:	4653      	mov	r3, sl
     f82:	1c32      	adds	r2, r6, #0
     f84:	685c      	ldr	r4, [r3, #4]
     f86:	681b      	ldr	r3, [r3, #0]
     f88:	9300      	str	r3, [sp, #0]
     f8a:	9401      	str	r4, [sp, #4]
     f8c:	1c18      	adds	r0, r3, #0
     f8e:	1c21      	adds	r1, r4, #0
     f90:	1c3b      	adds	r3, r7, #0
     f92:	f000 fb61 	bl	1658 <__aeabi_dadd>
     f96:	1c04      	adds	r4, r0, #0
     f98:	1c0d      	adds	r5, r1, #0
     f9a:	9800      	ldr	r0, [sp, #0]
     f9c:	9901      	ldr	r1, [sp, #4]
     f9e:	1c22      	adds	r2, r4, #0
     fa0:	1c2b      	adds	r3, r5, #0
     fa2:	f001 fa35 	bl	2410 <__aeabi_dsub>
     fa6:	1c3b      	adds	r3, r7, #0
     fa8:	1c32      	adds	r2, r6, #0
     faa:	f000 fb55 	bl	1658 <__aeabi_dadd>
     fae:	4653      	mov	r3, sl
     fb0:	6098      	str	r0, [r3, #8]
     fb2:	60d9      	str	r1, [r3, #12]
     fb4:	601c      	str	r4, [r3, #0]
     fb6:	605d      	str	r5, [r3, #4]
     fb8:	2308      	movs	r3, #8
     fba:	425b      	negs	r3, r3
     fbc:	469c      	mov	ip, r3
     fbe:	44e2      	add	sl, ip
     fc0:	1c26      	adds	r6, r4, #0
     fc2:	1c2f      	adds	r7, r5, #0
     fc4:	45d1      	cmp	r9, sl
     fc6:	d1db      	bne.n	f80 <__main_stack_size+0x780>
     fc8:	4644      	mov	r4, r8
     fca:	2000      	movs	r0, #0
     fcc:	2100      	movs	r1, #0
     fce:	3408      	adds	r4, #8
     fd0:	444c      	add	r4, r9
     fd2:	ad4e      	add	r5, sp, #312	; 0x138
     fd4:	6822      	ldr	r2, [r4, #0]
     fd6:	6863      	ldr	r3, [r4, #4]
     fd8:	3c08      	subs	r4, #8
     fda:	f000 fb3d 	bl	1658 <__aeabi_dadd>
     fde:	42ac      	cmp	r4, r5
     fe0:	d1f8      	bne.n	fd4 <__main_stack_size+0x7d4>
     fe2:	9b05      	ldr	r3, [sp, #20]
     fe4:	2b00      	cmp	r3, #0
     fe6:	d000      	beq.n	fea <__main_stack_size+0x7ea>
     fe8:	e72e      	b.n	e48 <__main_stack_size+0x648>
     fea:	9a4c      	ldr	r2, [sp, #304]	; 0x130
     fec:	9b4d      	ldr	r3, [sp, #308]	; 0x134
     fee:	9c08      	ldr	r4, [sp, #32]
     ff0:	6022      	str	r2, [r4, #0]
     ff2:	6063      	str	r3, [r4, #4]
     ff4:	464b      	mov	r3, r9
     ff6:	689a      	ldr	r2, [r3, #8]
     ff8:	68db      	ldr	r3, [r3, #12]
     ffa:	9200      	str	r2, [sp, #0]
     ffc:	9301      	str	r3, [sp, #4]
     ffe:	60a2      	str	r2, [r4, #8]
    1000:	60e3      	str	r3, [r4, #12]
    1002:	1c02      	adds	r2, r0, #0
    1004:	1c0b      	adds	r3, r1, #0
    1006:	6122      	str	r2, [r4, #16]
    1008:	6163      	str	r3, [r4, #20]
    100a:	e690      	b.n	d2e <__main_stack_size+0x52e>
    100c:	2201      	movs	r2, #1
    100e:	e559      	b.n	ac4 <__main_stack_size+0x2c4>
    1010:	2400      	movs	r4, #0
    1012:	e515      	b.n	a40 <__main_stack_size+0x240>
    1014:	9b09      	ldr	r3, [sp, #36]	; 0x24
    1016:	00db      	lsls	r3, r3, #3
    1018:	9303      	str	r3, [sp, #12]
    101a:	ab74      	add	r3, sp, #464	; 0x1d0
    101c:	9306      	str	r3, [sp, #24]
    101e:	e446      	b.n	8ae <__main_stack_size+0xae>
    1020:	464b      	mov	r3, r9
    1022:	1c20      	adds	r0, r4, #0
    1024:	1c29      	adds	r1, r5, #0
    1026:	009e      	lsls	r6, r3, #2
    1028:	f001 fd6c 	bl	2b04 <__aeabi_d2iz>
    102c:	ab10      	add	r3, sp, #64	; 0x40
    102e:	5198      	str	r0, [r3, r6]
    1030:	46c8      	mov	r8, r9
    1032:	e5ec      	b.n	c0e <__main_stack_size+0x40e>
    1034:	3fffffff 	.word	0x3fffffff
    1038:	1fffffff 	.word	0x1fffffff

0000103c <__kernel_sin>:
    103c:	b5f0      	push	{r4, r5, r6, r7, lr}
    103e:	464f      	mov	r7, r9
    1040:	4646      	mov	r6, r8
    1042:	b4c0      	push	{r6, r7}
    1044:	b087      	sub	sp, #28
    1046:	9200      	str	r2, [sp, #0]
    1048:	9301      	str	r3, [sp, #4]
    104a:	4a46      	ldr	r2, [pc, #280]	; (1164 <__kernel_sin+0x128>)
    104c:	004b      	lsls	r3, r1, #1
    104e:	4681      	mov	r9, r0
    1050:	4688      	mov	r8, r1
    1052:	085b      	lsrs	r3, r3, #1
    1054:	4293      	cmp	r3, r2
    1056:	dc07      	bgt.n	1068 <__kernel_sin+0x2c>
    1058:	4641      	mov	r1, r8
    105a:	4648      	mov	r0, r9
    105c:	f001 fd52 	bl	2b04 <__aeabi_d2iz>
    1060:	4641      	mov	r1, r8
    1062:	1e03      	subs	r3, r0, #0
    1064:	4648      	mov	r0, r9
    1066:	d064      	beq.n	1132 <__kernel_sin+0xf6>
    1068:	464a      	mov	r2, r9
    106a:	4643      	mov	r3, r8
    106c:	4648      	mov	r0, r9
    106e:	4641      	mov	r1, r8
    1070:	f000 ff34 	bl	1edc <__aeabi_dmul>
    1074:	464a      	mov	r2, r9
    1076:	4643      	mov	r3, r8
    1078:	1c04      	adds	r4, r0, #0
    107a:	1c0d      	adds	r5, r1, #0
    107c:	f000 ff2e 	bl	1edc <__aeabi_dmul>
    1080:	4a39      	ldr	r2, [pc, #228]	; (1168 <__kernel_sin+0x12c>)
    1082:	4b3a      	ldr	r3, [pc, #232]	; (116c <__kernel_sin+0x130>)
    1084:	1c06      	adds	r6, r0, #0
    1086:	1c0f      	adds	r7, r1, #0
    1088:	1c20      	adds	r0, r4, #0
    108a:	1c29      	adds	r1, r5, #0
    108c:	f000 ff26 	bl	1edc <__aeabi_dmul>
    1090:	4a37      	ldr	r2, [pc, #220]	; (1170 <__kernel_sin+0x134>)
    1092:	4b38      	ldr	r3, [pc, #224]	; (1174 <__kernel_sin+0x138>)
    1094:	f001 f9bc 	bl	2410 <__aeabi_dsub>
    1098:	1c22      	adds	r2, r4, #0
    109a:	1c2b      	adds	r3, r5, #0
    109c:	f000 ff1e 	bl	1edc <__aeabi_dmul>
    10a0:	4a35      	ldr	r2, [pc, #212]	; (1178 <__kernel_sin+0x13c>)
    10a2:	4b36      	ldr	r3, [pc, #216]	; (117c <__kernel_sin+0x140>)
    10a4:	f000 fad8 	bl	1658 <__aeabi_dadd>
    10a8:	1c22      	adds	r2, r4, #0
    10aa:	1c2b      	adds	r3, r5, #0
    10ac:	f000 ff16 	bl	1edc <__aeabi_dmul>
    10b0:	4a33      	ldr	r2, [pc, #204]	; (1180 <__kernel_sin+0x144>)
    10b2:	4b34      	ldr	r3, [pc, #208]	; (1184 <__kernel_sin+0x148>)
    10b4:	f001 f9ac 	bl	2410 <__aeabi_dsub>
    10b8:	1c22      	adds	r2, r4, #0
    10ba:	1c2b      	adds	r3, r5, #0
    10bc:	f000 ff0e 	bl	1edc <__aeabi_dmul>
    10c0:	4b31      	ldr	r3, [pc, #196]	; (1188 <__kernel_sin+0x14c>)
    10c2:	4a32      	ldr	r2, [pc, #200]	; (118c <__kernel_sin+0x150>)
    10c4:	f000 fac8 	bl	1658 <__aeabi_dadd>
    10c8:	9b0e      	ldr	r3, [sp, #56]	; 0x38
    10ca:	9002      	str	r0, [sp, #8]
    10cc:	9103      	str	r1, [sp, #12]
    10ce:	2b00      	cmp	r3, #0
    10d0:	d034      	beq.n	113c <__kernel_sin+0x100>
    10d2:	9800      	ldr	r0, [sp, #0]
    10d4:	9901      	ldr	r1, [sp, #4]
    10d6:	2200      	movs	r2, #0
    10d8:	4b2d      	ldr	r3, [pc, #180]	; (1190 <__kernel_sin+0x154>)
    10da:	f000 feff 	bl	1edc <__aeabi_dmul>
    10de:	9a02      	ldr	r2, [sp, #8]
    10e0:	9b03      	ldr	r3, [sp, #12]
    10e2:	9004      	str	r0, [sp, #16]
    10e4:	9105      	str	r1, [sp, #20]
    10e6:	1c30      	adds	r0, r6, #0
    10e8:	1c39      	adds	r1, r7, #0
    10ea:	f000 fef7 	bl	1edc <__aeabi_dmul>
    10ee:	1c02      	adds	r2, r0, #0
    10f0:	1c0b      	adds	r3, r1, #0
    10f2:	9804      	ldr	r0, [sp, #16]
    10f4:	9905      	ldr	r1, [sp, #20]
    10f6:	f001 f98b 	bl	2410 <__aeabi_dsub>
    10fa:	1c22      	adds	r2, r4, #0
    10fc:	1c2b      	adds	r3, r5, #0
    10fe:	f000 feed 	bl	1edc <__aeabi_dmul>
    1102:	9a00      	ldr	r2, [sp, #0]
    1104:	9b01      	ldr	r3, [sp, #4]
    1106:	f001 f983 	bl	2410 <__aeabi_dsub>
    110a:	4a22      	ldr	r2, [pc, #136]	; (1194 <__kernel_sin+0x158>)
    110c:	1c04      	adds	r4, r0, #0
    110e:	1c0d      	adds	r5, r1, #0
    1110:	4b21      	ldr	r3, [pc, #132]	; (1198 <__kernel_sin+0x15c>)
    1112:	1c30      	adds	r0, r6, #0
    1114:	1c39      	adds	r1, r7, #0
    1116:	f000 fee1 	bl	1edc <__aeabi_dmul>
    111a:	1c02      	adds	r2, r0, #0
    111c:	1c0b      	adds	r3, r1, #0
    111e:	1c20      	adds	r0, r4, #0
    1120:	1c29      	adds	r1, r5, #0
    1122:	f000 fa99 	bl	1658 <__aeabi_dadd>
    1126:	1c02      	adds	r2, r0, #0
    1128:	1c0b      	adds	r3, r1, #0
    112a:	4648      	mov	r0, r9
    112c:	4641      	mov	r1, r8
    112e:	f001 f96f 	bl	2410 <__aeabi_dsub>
    1132:	b007      	add	sp, #28
    1134:	bc0c      	pop	{r2, r3}
    1136:	4690      	mov	r8, r2
    1138:	4699      	mov	r9, r3
    113a:	bdf0      	pop	{r4, r5, r6, r7, pc}
    113c:	9a02      	ldr	r2, [sp, #8]
    113e:	9b03      	ldr	r3, [sp, #12]
    1140:	1c20      	adds	r0, r4, #0
    1142:	1c29      	adds	r1, r5, #0
    1144:	f000 feca 	bl	1edc <__aeabi_dmul>
    1148:	4a12      	ldr	r2, [pc, #72]	; (1194 <__kernel_sin+0x158>)
    114a:	4b13      	ldr	r3, [pc, #76]	; (1198 <__kernel_sin+0x15c>)
    114c:	f001 f960 	bl	2410 <__aeabi_dsub>
    1150:	1c32      	adds	r2, r6, #0
    1152:	1c3b      	adds	r3, r7, #0
    1154:	f000 fec2 	bl	1edc <__aeabi_dmul>
    1158:	464a      	mov	r2, r9
    115a:	4643      	mov	r3, r8
    115c:	f000 fa7c 	bl	1658 <__aeabi_dadd>
    1160:	e7e7      	b.n	1132 <__kernel_sin+0xf6>
    1162:	46c0      	nop			; (mov r8, r8)
    1164:	3e3fffff 	.word	0x3e3fffff
    1168:	5acfd57c 	.word	0x5acfd57c
    116c:	3de5d93a 	.word	0x3de5d93a
    1170:	8a2b9ceb 	.word	0x8a2b9ceb
    1174:	3e5ae5e6 	.word	0x3e5ae5e6
    1178:	57b1fe7d 	.word	0x57b1fe7d
    117c:	3ec71de3 	.word	0x3ec71de3
    1180:	19c161d5 	.word	0x19c161d5
    1184:	3f2a01a0 	.word	0x3f2a01a0
    1188:	3f811111 	.word	0x3f811111
    118c:	1110f8a6 	.word	0x1110f8a6
    1190:	3fe00000 	.word	0x3fe00000
    1194:	55555549 	.word	0x55555549
    1198:	3fc55555 	.word	0x3fc55555

0000119c <fabs>:
    119c:	0049      	lsls	r1, r1, #1
    119e:	084b      	lsrs	r3, r1, #1
    11a0:	1c19      	adds	r1, r3, #0
    11a2:	4770      	bx	lr

000011a4 <floor>:
    11a4:	b5f0      	push	{r4, r5, r6, r7, lr}
    11a6:	465f      	mov	r7, fp
    11a8:	464d      	mov	r5, r9
    11aa:	4644      	mov	r4, r8
    11ac:	4656      	mov	r6, sl
    11ae:	b4f0      	push	{r4, r5, r6, r7}
    11b0:	4b48      	ldr	r3, [pc, #288]	; (12d4 <floor+0x130>)
    11b2:	004d      	lsls	r5, r1, #1
    11b4:	0d6d      	lsrs	r5, r5, #21
    11b6:	18ef      	adds	r7, r5, r3
    11b8:	b083      	sub	sp, #12
    11ba:	1c06      	adds	r6, r0, #0
    11bc:	1c0c      	adds	r4, r1, #0
    11be:	4688      	mov	r8, r1
    11c0:	468b      	mov	fp, r1
    11c2:	4681      	mov	r9, r0
    11c4:	2f13      	cmp	r7, #19
    11c6:	dc27      	bgt.n	1218 <floor+0x74>
    11c8:	2f00      	cmp	r7, #0
    11ca:	db54      	blt.n	1276 <floor+0xd2>
    11cc:	4d42      	ldr	r5, [pc, #264]	; (12d8 <floor+0x134>)
    11ce:	4641      	mov	r1, r8
    11d0:	413d      	asrs	r5, r7
    11d2:	4029      	ands	r1, r5
    11d4:	4301      	orrs	r1, r0
    11d6:	1c02      	adds	r2, r0, #0
    11d8:	1c23      	adds	r3, r4, #0
    11da:	2900      	cmp	r1, #0
    11dc:	d013      	beq.n	1206 <floor+0x62>
    11de:	4a3f      	ldr	r2, [pc, #252]	; (12dc <floor+0x138>)
    11e0:	4b3f      	ldr	r3, [pc, #252]	; (12e0 <floor+0x13c>)
    11e2:	1c21      	adds	r1, r4, #0
    11e4:	f000 fa38 	bl	1658 <__aeabi_dadd>
    11e8:	2200      	movs	r2, #0
    11ea:	2300      	movs	r3, #0
    11ec:	f000 fa20 	bl	1630 <__aeabi_dcmpgt>
    11f0:	2800      	cmp	r0, #0
    11f2:	d006      	beq.n	1202 <floor+0x5e>
    11f4:	2c00      	cmp	r4, #0
    11f6:	db4e      	blt.n	1296 <floor+0xf2>
    11f8:	465b      	mov	r3, fp
    11fa:	43ab      	bics	r3, r5
    11fc:	4698      	mov	r8, r3
    11fe:	2300      	movs	r3, #0
    1200:	4699      	mov	r9, r3
    1202:	4643      	mov	r3, r8
    1204:	464a      	mov	r2, r9
    1206:	1c10      	adds	r0, r2, #0
    1208:	1c19      	adds	r1, r3, #0
    120a:	b003      	add	sp, #12
    120c:	bc3c      	pop	{r2, r3, r4, r5}
    120e:	4690      	mov	r8, r2
    1210:	4699      	mov	r9, r3
    1212:	46a2      	mov	sl, r4
    1214:	46ab      	mov	fp, r5
    1216:	bdf0      	pop	{r4, r5, r6, r7, pc}
    1218:	2f33      	cmp	r7, #51	; 0x33
    121a:	dd0c      	ble.n	1236 <floor+0x92>
    121c:	1c0b      	adds	r3, r1, #0
    121e:	2180      	movs	r1, #128	; 0x80
    1220:	1c02      	adds	r2, r0, #0
    1222:	00c9      	lsls	r1, r1, #3
    1224:	428f      	cmp	r7, r1
    1226:	d1ee      	bne.n	1206 <floor+0x62>
    1228:	1c32      	adds	r2, r6, #0
    122a:	1c21      	adds	r1, r4, #0
    122c:	f000 fa14 	bl	1658 <__aeabi_dadd>
    1230:	1c02      	adds	r2, r0, #0
    1232:	1c0b      	adds	r3, r1, #0
    1234:	e7e7      	b.n	1206 <floor+0x62>
    1236:	2201      	movs	r2, #1
    1238:	4b2a      	ldr	r3, [pc, #168]	; (12e4 <floor+0x140>)
    123a:	4252      	negs	r2, r2
    123c:	18eb      	adds	r3, r5, r3
    123e:	40da      	lsrs	r2, r3
    1240:	1c11      	adds	r1, r2, #0
    1242:	9201      	str	r2, [sp, #4]
    1244:	1c23      	adds	r3, r4, #0
    1246:	1c02      	adds	r2, r0, #0
    1248:	4201      	tst	r1, r0
    124a:	d0dc      	beq.n	1206 <floor+0x62>
    124c:	4a23      	ldr	r2, [pc, #140]	; (12dc <floor+0x138>)
    124e:	4b24      	ldr	r3, [pc, #144]	; (12e0 <floor+0x13c>)
    1250:	1c21      	adds	r1, r4, #0
    1252:	f000 fa01 	bl	1658 <__aeabi_dadd>
    1256:	2200      	movs	r2, #0
    1258:	2300      	movs	r3, #0
    125a:	f000 f9e9 	bl	1630 <__aeabi_dcmpgt>
    125e:	2800      	cmp	r0, #0
    1260:	d0cf      	beq.n	1202 <floor+0x5e>
    1262:	2c00      	cmp	r4, #0
    1264:	db1c      	blt.n	12a0 <floor+0xfc>
    1266:	464b      	mov	r3, r9
    1268:	9a01      	ldr	r2, [sp, #4]
    126a:	46d8      	mov	r8, fp
    126c:	4393      	bics	r3, r2
    126e:	4699      	mov	r9, r3
    1270:	4643      	mov	r3, r8
    1272:	464a      	mov	r2, r9
    1274:	e7c7      	b.n	1206 <floor+0x62>
    1276:	4a19      	ldr	r2, [pc, #100]	; (12dc <floor+0x138>)
    1278:	4b19      	ldr	r3, [pc, #100]	; (12e0 <floor+0x13c>)
    127a:	f000 f9ed 	bl	1658 <__aeabi_dadd>
    127e:	2200      	movs	r2, #0
    1280:	2300      	movs	r3, #0
    1282:	f000 f9d5 	bl	1630 <__aeabi_dcmpgt>
    1286:	2800      	cmp	r0, #0
    1288:	d0bb      	beq.n	1202 <floor+0x5e>
    128a:	2c00      	cmp	r4, #0
    128c:	db15      	blt.n	12ba <floor+0x116>
    128e:	2300      	movs	r3, #0
    1290:	4699      	mov	r9, r3
    1292:	4698      	mov	r8, r3
    1294:	e7b5      	b.n	1202 <floor+0x5e>
    1296:	2380      	movs	r3, #128	; 0x80
    1298:	035b      	lsls	r3, r3, #13
    129a:	413b      	asrs	r3, r7
    129c:	449b      	add	fp, r3
    129e:	e7ab      	b.n	11f8 <floor+0x54>
    12a0:	2f14      	cmp	r7, #20
    12a2:	d013      	beq.n	12cc <floor+0x128>
    12a4:	4b10      	ldr	r3, [pc, #64]	; (12e8 <floor+0x144>)
    12a6:	1b5d      	subs	r5, r3, r5
    12a8:	2301      	movs	r3, #1
    12aa:	40ab      	lsls	r3, r5
    12ac:	4699      	mov	r9, r3
    12ae:	44b1      	add	r9, r6
    12b0:	45b1      	cmp	r9, r6
    12b2:	419b      	sbcs	r3, r3
    12b4:	425b      	negs	r3, r3
    12b6:	449b      	add	fp, r3
    12b8:	e7d5      	b.n	1266 <floor+0xc2>
    12ba:	2300      	movs	r3, #0
    12bc:	0064      	lsls	r4, r4, #1
    12be:	0864      	lsrs	r4, r4, #1
    12c0:	4326      	orrs	r6, r4
    12c2:	4699      	mov	r9, r3
    12c4:	d09d      	beq.n	1202 <floor+0x5e>
    12c6:	4b09      	ldr	r3, [pc, #36]	; (12ec <floor+0x148>)
    12c8:	4698      	mov	r8, r3
    12ca:	e79a      	b.n	1202 <floor+0x5e>
    12cc:	2301      	movs	r3, #1
    12ce:	469c      	mov	ip, r3
    12d0:	44e3      	add	fp, ip
    12d2:	e7c8      	b.n	1266 <floor+0xc2>
    12d4:	fffffc01 	.word	0xfffffc01
    12d8:	000fffff 	.word	0x000fffff
    12dc:	8800759c 	.word	0x8800759c
    12e0:	7e37e43c 	.word	0x7e37e43c
    12e4:	fffffbed 	.word	0xfffffbed
    12e8:	00000433 	.word	0x00000433
    12ec:	bff00000 	.word	0xbff00000

000012f0 <scalbn>:
    12f0:	b5f8      	push	{r3, r4, r5, r6, r7, lr}
    12f2:	4f31      	ldr	r7, [pc, #196]	; (13b8 <scalbn+0xc8>)
    12f4:	1c16      	adds	r6, r2, #0
    12f6:	1c3b      	adds	r3, r7, #0
    12f8:	400b      	ands	r3, r1
    12fa:	1c04      	adds	r4, r0, #0
    12fc:	1c0d      	adds	r5, r1, #0
    12fe:	1c0a      	adds	r2, r1, #0
    1300:	151b      	asrs	r3, r3, #20
    1302:	d120      	bne.n	1346 <scalbn+0x56>
    1304:	004b      	lsls	r3, r1, #1
    1306:	085b      	lsrs	r3, r3, #1
    1308:	4303      	orrs	r3, r0
    130a:	d01b      	beq.n	1344 <scalbn+0x54>
    130c:	2200      	movs	r2, #0
    130e:	4b2b      	ldr	r3, [pc, #172]	; (13bc <scalbn+0xcc>)
    1310:	f000 fde4 	bl	1edc <__aeabi_dmul>
    1314:	4b2a      	ldr	r3, [pc, #168]	; (13c0 <scalbn+0xd0>)
    1316:	1c04      	adds	r4, r0, #0
    1318:	1c0d      	adds	r5, r1, #0
    131a:	1c0a      	adds	r2, r1, #0
    131c:	429e      	cmp	r6, r3
    131e:	db22      	blt.n	1366 <scalbn+0x76>
    1320:	400f      	ands	r7, r1
    1322:	153f      	asrs	r7, r7, #20
    1324:	1c3b      	adds	r3, r7, #0
    1326:	4927      	ldr	r1, [pc, #156]	; (13c4 <scalbn+0xd4>)
    1328:	3b36      	subs	r3, #54	; 0x36
    132a:	199b      	adds	r3, r3, r6
    132c:	428b      	cmp	r3, r1
    132e:	dd11      	ble.n	1354 <scalbn+0x64>
    1330:	1c22      	adds	r2, r4, #0
    1332:	1c2b      	adds	r3, r5, #0
    1334:	4824      	ldr	r0, [pc, #144]	; (13c8 <scalbn+0xd8>)
    1336:	4925      	ldr	r1, [pc, #148]	; (13cc <scalbn+0xdc>)
    1338:	f000 f856 	bl	13e8 <copysign>
    133c:	4a22      	ldr	r2, [pc, #136]	; (13c8 <scalbn+0xd8>)
    133e:	4b23      	ldr	r3, [pc, #140]	; (13cc <scalbn+0xdc>)
    1340:	f000 fdcc 	bl	1edc <__aeabi_dmul>
    1344:	bdf8      	pop	{r3, r4, r5, r6, r7, pc}
    1346:	4922      	ldr	r1, [pc, #136]	; (13d0 <scalbn+0xe0>)
    1348:	428b      	cmp	r3, r1
    134a:	d022      	beq.n	1392 <scalbn+0xa2>
    134c:	491d      	ldr	r1, [pc, #116]	; (13c4 <scalbn+0xd4>)
    134e:	199b      	adds	r3, r3, r6
    1350:	428b      	cmp	r3, r1
    1352:	dced      	bgt.n	1330 <scalbn+0x40>
    1354:	2b00      	cmp	r3, #0
    1356:	dd0b      	ble.n	1370 <scalbn+0x80>
    1358:	491e      	ldr	r1, [pc, #120]	; (13d4 <scalbn+0xe4>)
    135a:	051b      	lsls	r3, r3, #20
    135c:	400a      	ands	r2, r1
    135e:	4313      	orrs	r3, r2
    1360:	1c20      	adds	r0, r4, #0
    1362:	1c19      	adds	r1, r3, #0
    1364:	e7ee      	b.n	1344 <scalbn+0x54>
    1366:	4a1c      	ldr	r2, [pc, #112]	; (13d8 <scalbn+0xe8>)
    1368:	4b1c      	ldr	r3, [pc, #112]	; (13dc <scalbn+0xec>)
    136a:	f000 fdb7 	bl	1edc <__aeabi_dmul>
    136e:	e7e9      	b.n	1344 <scalbn+0x54>
    1370:	1c19      	adds	r1, r3, #0
    1372:	3135      	adds	r1, #53	; 0x35
    1374:	da13      	bge.n	139e <scalbn+0xae>
    1376:	4b1a      	ldr	r3, [pc, #104]	; (13e0 <scalbn+0xf0>)
    1378:	429e      	cmp	r6, r3
    137a:	dcd9      	bgt.n	1330 <scalbn+0x40>
    137c:	1c22      	adds	r2, r4, #0
    137e:	1c2b      	adds	r3, r5, #0
    1380:	4815      	ldr	r0, [pc, #84]	; (13d8 <scalbn+0xe8>)
    1382:	4916      	ldr	r1, [pc, #88]	; (13dc <scalbn+0xec>)
    1384:	f000 f830 	bl	13e8 <copysign>
    1388:	4a13      	ldr	r2, [pc, #76]	; (13d8 <scalbn+0xe8>)
    138a:	4b14      	ldr	r3, [pc, #80]	; (13dc <scalbn+0xec>)
    138c:	f000 fda6 	bl	1edc <__aeabi_dmul>
    1390:	e7d8      	b.n	1344 <scalbn+0x54>
    1392:	1c29      	adds	r1, r5, #0
    1394:	1c22      	adds	r2, r4, #0
    1396:	1c2b      	adds	r3, r5, #0
    1398:	f000 f95e 	bl	1658 <__aeabi_dadd>
    139c:	e7d2      	b.n	1344 <scalbn+0x54>
    139e:	490d      	ldr	r1, [pc, #52]	; (13d4 <scalbn+0xe4>)
    13a0:	3336      	adds	r3, #54	; 0x36
    13a2:	400a      	ands	r2, r1
    13a4:	051b      	lsls	r3, r3, #20
    13a6:	4313      	orrs	r3, r2
    13a8:	1c20      	adds	r0, r4, #0
    13aa:	1c19      	adds	r1, r3, #0
    13ac:	2200      	movs	r2, #0
    13ae:	4b0d      	ldr	r3, [pc, #52]	; (13e4 <scalbn+0xf4>)
    13b0:	f000 fd94 	bl	1edc <__aeabi_dmul>
    13b4:	e7c6      	b.n	1344 <scalbn+0x54>
    13b6:	46c0      	nop			; (mov r8, r8)
    13b8:	7ff00000 	.word	0x7ff00000
    13bc:	43500000 	.word	0x43500000
    13c0:	ffff3cb0 	.word	0xffff3cb0
    13c4:	000007fe 	.word	0x000007fe
    13c8:	8800759c 	.word	0x8800759c
    13cc:	7e37e43c 	.word	0x7e37e43c
    13d0:	000007ff 	.word	0x000007ff
    13d4:	800fffff 	.word	0x800fffff
    13d8:	c2f8f359 	.word	0xc2f8f359
    13dc:	01a56e1f 	.word	0x01a56e1f
    13e0:	0000c350 	.word	0x0000c350
    13e4:	3c900000 	.word	0x3c900000

000013e8 <copysign>:
    13e8:	b530      	push	{r4, r5, lr}
    13ea:	004a      	lsls	r2, r1, #1
    13ec:	0fdb      	lsrs	r3, r3, #31
    13ee:	0852      	lsrs	r2, r2, #1
    13f0:	07db      	lsls	r3, r3, #31
    13f2:	4313      	orrs	r3, r2
    13f4:	1c19      	adds	r1, r3, #0
    13f6:	bd30      	pop	{r4, r5, pc}

000013f8 <__aeabi_idiv>:
    13f8:	4603      	mov	r3, r0
    13fa:	430b      	orrs	r3, r1
    13fc:	d47f      	bmi.n	14fe <__aeabi_idiv+0x106>
    13fe:	2200      	movs	r2, #0
    1400:	0843      	lsrs	r3, r0, #1
    1402:	428b      	cmp	r3, r1
    1404:	d374      	bcc.n	14f0 <__aeabi_idiv+0xf8>
    1406:	0903      	lsrs	r3, r0, #4
    1408:	428b      	cmp	r3, r1
    140a:	d35f      	bcc.n	14cc <__aeabi_idiv+0xd4>
    140c:	0a03      	lsrs	r3, r0, #8
    140e:	428b      	cmp	r3, r1
    1410:	d344      	bcc.n	149c <__aeabi_idiv+0xa4>
    1412:	0b03      	lsrs	r3, r0, #12
    1414:	428b      	cmp	r3, r1
    1416:	d328      	bcc.n	146a <__aeabi_idiv+0x72>
    1418:	0c03      	lsrs	r3, r0, #16
    141a:	428b      	cmp	r3, r1
    141c:	d30d      	bcc.n	143a <__aeabi_idiv+0x42>
    141e:	22ff      	movs	r2, #255	; 0xff
    1420:	0209      	lsls	r1, r1, #8
    1422:	ba12      	rev	r2, r2
    1424:	0c03      	lsrs	r3, r0, #16
    1426:	428b      	cmp	r3, r1
    1428:	d302      	bcc.n	1430 <__aeabi_idiv+0x38>
    142a:	1212      	asrs	r2, r2, #8
    142c:	0209      	lsls	r1, r1, #8
    142e:	d065      	beq.n	14fc <__aeabi_idiv+0x104>
    1430:	0b03      	lsrs	r3, r0, #12
    1432:	428b      	cmp	r3, r1
    1434:	d319      	bcc.n	146a <__aeabi_idiv+0x72>
    1436:	e000      	b.n	143a <__aeabi_idiv+0x42>
    1438:	0a09      	lsrs	r1, r1, #8
    143a:	0bc3      	lsrs	r3, r0, #15
    143c:	428b      	cmp	r3, r1
    143e:	d301      	bcc.n	1444 <__aeabi_idiv+0x4c>
    1440:	03cb      	lsls	r3, r1, #15
    1442:	1ac0      	subs	r0, r0, r3
    1444:	4152      	adcs	r2, r2
    1446:	0b83      	lsrs	r3, r0, #14
    1448:	428b      	cmp	r3, r1
    144a:	d301      	bcc.n	1450 <__aeabi_idiv+0x58>
    144c:	038b      	lsls	r3, r1, #14
    144e:	1ac0      	subs	r0, r0, r3
    1450:	4152      	adcs	r2, r2
    1452:	0b43      	lsrs	r3, r0, #13
    1454:	428b      	cmp	r3, r1
    1456:	d301      	bcc.n	145c <__aeabi_idiv+0x64>
    1458:	034b      	lsls	r3, r1, #13
    145a:	1ac0      	subs	r0, r0, r3
    145c:	4152      	adcs	r2, r2
    145e:	0b03      	lsrs	r3, r0, #12
    1460:	428b      	cmp	r3, r1
    1462:	d301      	bcc.n	1468 <__aeabi_idiv+0x70>
    1464:	030b      	lsls	r3, r1, #12
    1466:	1ac0      	subs	r0, r0, r3
    1468:	4152      	adcs	r2, r2
    146a:	0ac3      	lsrs	r3, r0, #11
    146c:	428b      	cmp	r3, r1
    146e:	d301      	bcc.n	1474 <__aeabi_idiv+0x7c>
    1470:	02cb      	lsls	r3, r1, #11
    1472:	1ac0      	subs	r0, r0, r3
    1474:	4152      	adcs	r2, r2
    1476:	0a83      	lsrs	r3, r0, #10
    1478:	428b      	cmp	r3, r1
    147a:	d301      	bcc.n	1480 <__aeabi_idiv+0x88>
    147c:	028b      	lsls	r3, r1, #10
    147e:	1ac0      	subs	r0, r0, r3
    1480:	4152      	adcs	r2, r2
    1482:	0a43      	lsrs	r3, r0, #9
    1484:	428b      	cmp	r3, r1
    1486:	d301      	bcc.n	148c <__aeabi_idiv+0x94>
    1488:	024b      	lsls	r3, r1, #9
    148a:	1ac0      	subs	r0, r0, r3
    148c:	4152      	adcs	r2, r2
    148e:	0a03      	lsrs	r3, r0, #8
    1490:	428b      	cmp	r3, r1
    1492:	d301      	bcc.n	1498 <__aeabi_idiv+0xa0>
    1494:	020b      	lsls	r3, r1, #8
    1496:	1ac0      	subs	r0, r0, r3
    1498:	4152      	adcs	r2, r2
    149a:	d2cd      	bcs.n	1438 <__aeabi_idiv+0x40>
    149c:	09c3      	lsrs	r3, r0, #7
    149e:	428b      	cmp	r3, r1
    14a0:	d301      	bcc.n	14a6 <__aeabi_idiv+0xae>
    14a2:	01cb      	lsls	r3, r1, #7
    14a4:	1ac0      	subs	r0, r0, r3
    14a6:	4152      	adcs	r2, r2
    14a8:	0983      	lsrs	r3, r0, #6
    14aa:	428b      	cmp	r3, r1
    14ac:	d301      	bcc.n	14b2 <__aeabi_idiv+0xba>
    14ae:	018b      	lsls	r3, r1, #6
    14b0:	1ac0      	subs	r0, r0, r3
    14b2:	4152      	adcs	r2, r2
    14b4:	0943      	lsrs	r3, r0, #5
    14b6:	428b      	cmp	r3, r1
    14b8:	d301      	bcc.n	14be <__aeabi_idiv+0xc6>
    14ba:	014b      	lsls	r3, r1, #5
    14bc:	1ac0      	subs	r0, r0, r3
    14be:	4152      	adcs	r2, r2
    14c0:	0903      	lsrs	r3, r0, #4
    14c2:	428b      	cmp	r3, r1
    14c4:	d301      	bcc.n	14ca <__aeabi_idiv+0xd2>
    14c6:	010b      	lsls	r3, r1, #4
    14c8:	1ac0      	subs	r0, r0, r3
    14ca:	4152      	adcs	r2, r2
    14cc:	08c3      	lsrs	r3, r0, #3
    14ce:	428b      	cmp	r3, r1
    14d0:	d301      	bcc.n	14d6 <__aeabi_idiv+0xde>
    14d2:	00cb      	lsls	r3, r1, #3
    14d4:	1ac0      	subs	r0, r0, r3
    14d6:	4152      	adcs	r2, r2
    14d8:	0883      	lsrs	r3, r0, #2
    14da:	428b      	cmp	r3, r1
    14dc:	d301      	bcc.n	14e2 <__aeabi_idiv+0xea>
    14de:	008b      	lsls	r3, r1, #2
    14e0:	1ac0      	subs	r0, r0, r3
    14e2:	4152      	adcs	r2, r2
    14e4:	0843      	lsrs	r3, r0, #1
    14e6:	428b      	cmp	r3, r1
    14e8:	d301      	bcc.n	14ee <__aeabi_idiv+0xf6>
    14ea:	004b      	lsls	r3, r1, #1
    14ec:	1ac0      	subs	r0, r0, r3
    14ee:	4152      	adcs	r2, r2
    14f0:	1a41      	subs	r1, r0, r1
    14f2:	d200      	bcs.n	14f6 <__aeabi_idiv+0xfe>
    14f4:	4601      	mov	r1, r0
    14f6:	4152      	adcs	r2, r2
    14f8:	4610      	mov	r0, r2
    14fa:	4770      	bx	lr
    14fc:	e05d      	b.n	15ba <__aeabi_idiv+0x1c2>
    14fe:	0fca      	lsrs	r2, r1, #31
    1500:	d000      	beq.n	1504 <__aeabi_idiv+0x10c>
    1502:	4249      	negs	r1, r1
    1504:	1003      	asrs	r3, r0, #32
    1506:	d300      	bcc.n	150a <__aeabi_idiv+0x112>
    1508:	4240      	negs	r0, r0
    150a:	4053      	eors	r3, r2
    150c:	2200      	movs	r2, #0
    150e:	469c      	mov	ip, r3
    1510:	0903      	lsrs	r3, r0, #4
    1512:	428b      	cmp	r3, r1
    1514:	d32d      	bcc.n	1572 <__aeabi_idiv+0x17a>
    1516:	0a03      	lsrs	r3, r0, #8
    1518:	428b      	cmp	r3, r1
    151a:	d312      	bcc.n	1542 <__aeabi_idiv+0x14a>
    151c:	22fc      	movs	r2, #252	; 0xfc
    151e:	0189      	lsls	r1, r1, #6
    1520:	ba12      	rev	r2, r2
    1522:	0a03      	lsrs	r3, r0, #8
    1524:	428b      	cmp	r3, r1
    1526:	d30c      	bcc.n	1542 <__aeabi_idiv+0x14a>
    1528:	0189      	lsls	r1, r1, #6
    152a:	1192      	asrs	r2, r2, #6
    152c:	428b      	cmp	r3, r1
    152e:	d308      	bcc.n	1542 <__aeabi_idiv+0x14a>
    1530:	0189      	lsls	r1, r1, #6
    1532:	1192      	asrs	r2, r2, #6
    1534:	428b      	cmp	r3, r1
    1536:	d304      	bcc.n	1542 <__aeabi_idiv+0x14a>
    1538:	0189      	lsls	r1, r1, #6
    153a:	d03a      	beq.n	15b2 <__aeabi_idiv+0x1ba>
    153c:	1192      	asrs	r2, r2, #6
    153e:	e000      	b.n	1542 <__aeabi_idiv+0x14a>
    1540:	0989      	lsrs	r1, r1, #6
    1542:	09c3      	lsrs	r3, r0, #7
    1544:	428b      	cmp	r3, r1
    1546:	d301      	bcc.n	154c <__aeabi_idiv+0x154>
    1548:	01cb      	lsls	r3, r1, #7
    154a:	1ac0      	subs	r0, r0, r3
    154c:	4152      	adcs	r2, r2
    154e:	0983      	lsrs	r3, r0, #6
    1550:	428b      	cmp	r3, r1
    1552:	d301      	bcc.n	1558 <__aeabi_idiv+0x160>
    1554:	018b      	lsls	r3, r1, #6
    1556:	1ac0      	subs	r0, r0, r3
    1558:	4152      	adcs	r2, r2
    155a:	0943      	lsrs	r3, r0, #5
    155c:	428b      	cmp	r3, r1
    155e:	d301      	bcc.n	1564 <__aeabi_idiv+0x16c>
    1560:	014b      	lsls	r3, r1, #5
    1562:	1ac0      	subs	r0, r0, r3
    1564:	4152      	adcs	r2, r2
    1566:	0903      	lsrs	r3, r0, #4
    1568:	428b      	cmp	r3, r1
    156a:	d301      	bcc.n	1570 <__aeabi_idiv+0x178>
    156c:	010b      	lsls	r3, r1, #4
    156e:	1ac0      	subs	r0, r0, r3
    1570:	4152      	adcs	r2, r2
    1572:	08c3      	lsrs	r3, r0, #3
    1574:	428b      	cmp	r3, r1
    1576:	d301      	bcc.n	157c <__aeabi_idiv+0x184>
    1578:	00cb      	lsls	r3, r1, #3
    157a:	1ac0      	subs	r0, r0, r3
    157c:	4152      	adcs	r2, r2
    157e:	0883      	lsrs	r3, r0, #2
    1580:	428b      	cmp	r3, r1
    1582:	d301      	bcc.n	1588 <__aeabi_idiv+0x190>
    1584:	008b      	lsls	r3, r1, #2
    1586:	1ac0      	subs	r0, r0, r3
    1588:	4152      	adcs	r2, r2
    158a:	d2d9      	bcs.n	1540 <__aeabi_idiv+0x148>
    158c:	0843      	lsrs	r3, r0, #1
    158e:	428b      	cmp	r3, r1
    1590:	d301      	bcc.n	1596 <__aeabi_idiv+0x19e>
    1592:	004b      	lsls	r3, r1, #1
    1594:	1ac0      	subs	r0, r0, r3
    1596:	4152      	adcs	r2, r2
    1598:	1a41      	subs	r1, r0, r1
    159a:	d200      	bcs.n	159e <__aeabi_idiv+0x1a6>
    159c:	4601      	mov	r1, r0
    159e:	4663      	mov	r3, ip
    15a0:	4152      	adcs	r2, r2
    15a2:	105b      	asrs	r3, r3, #1
    15a4:	4610      	mov	r0, r2
    15a6:	d301      	bcc.n	15ac <__aeabi_idiv+0x1b4>
    15a8:	4240      	negs	r0, r0
    15aa:	2b00      	cmp	r3, #0
    15ac:	d500      	bpl.n	15b0 <__aeabi_idiv+0x1b8>
    15ae:	4249      	negs	r1, r1
    15b0:	4770      	bx	lr
    15b2:	4663      	mov	r3, ip
    15b4:	105b      	asrs	r3, r3, #1
    15b6:	d300      	bcc.n	15ba <__aeabi_idiv+0x1c2>
    15b8:	4240      	negs	r0, r0
    15ba:	b501      	push	{r0, lr}
    15bc:	2000      	movs	r0, #0
    15be:	f000 f80b 	bl	15d8 <__aeabi_idiv0>
    15c2:	bd02      	pop	{r1, pc}

000015c4 <__aeabi_idivmod>:
    15c4:	2900      	cmp	r1, #0
    15c6:	d0f8      	beq.n	15ba <__aeabi_idiv+0x1c2>
    15c8:	b503      	push	{r0, r1, lr}
    15ca:	f7ff ff15 	bl	13f8 <__aeabi_idiv>
    15ce:	bc0e      	pop	{r1, r2, r3}
    15d0:	4342      	muls	r2, r0
    15d2:	1a89      	subs	r1, r1, r2
    15d4:	4718      	bx	r3
    15d6:	46c0      	nop			; (mov r8, r8)

000015d8 <__aeabi_idiv0>:
    15d8:	4770      	bx	lr
    15da:	46c0      	nop			; (mov r8, r8)

000015dc <__aeabi_cdrcmple>:
    15dc:	4684      	mov	ip, r0
    15de:	1c10      	adds	r0, r2, #0
    15e0:	4662      	mov	r2, ip
    15e2:	468c      	mov	ip, r1
    15e4:	1c19      	adds	r1, r3, #0
    15e6:	4663      	mov	r3, ip
    15e8:	e000      	b.n	15ec <__aeabi_cdcmpeq>
    15ea:	46c0      	nop			; (mov r8, r8)

000015ec <__aeabi_cdcmpeq>:
    15ec:	b51f      	push	{r0, r1, r2, r3, r4, lr}
    15ee:	f000 fc0f 	bl	1e10 <__ledf2>
    15f2:	2800      	cmp	r0, #0
    15f4:	d401      	bmi.n	15fa <__aeabi_cdcmpeq+0xe>
    15f6:	2100      	movs	r1, #0
    15f8:	42c8      	cmn	r0, r1
    15fa:	bd1f      	pop	{r0, r1, r2, r3, r4, pc}

000015fc <__aeabi_dcmpeq>:
    15fc:	b510      	push	{r4, lr}
    15fe:	f000 fb53 	bl	1ca8 <__eqdf2>
    1602:	4240      	negs	r0, r0
    1604:	3001      	adds	r0, #1
    1606:	bd10      	pop	{r4, pc}

00001608 <__aeabi_dcmplt>:
    1608:	b510      	push	{r4, lr}
    160a:	f000 fc01 	bl	1e10 <__ledf2>
    160e:	2800      	cmp	r0, #0
    1610:	db01      	blt.n	1616 <__aeabi_dcmplt+0xe>
    1612:	2000      	movs	r0, #0
    1614:	bd10      	pop	{r4, pc}
    1616:	2001      	movs	r0, #1
    1618:	bd10      	pop	{r4, pc}
    161a:	46c0      	nop			; (mov r8, r8)

0000161c <__aeabi_dcmple>:
    161c:	b510      	push	{r4, lr}
    161e:	f000 fbf7 	bl	1e10 <__ledf2>
    1622:	2800      	cmp	r0, #0
    1624:	dd01      	ble.n	162a <__aeabi_dcmple+0xe>
    1626:	2000      	movs	r0, #0
    1628:	bd10      	pop	{r4, pc}
    162a:	2001      	movs	r0, #1
    162c:	bd10      	pop	{r4, pc}
    162e:	46c0      	nop			; (mov r8, r8)

00001630 <__aeabi_dcmpgt>:
    1630:	b510      	push	{r4, lr}
    1632:	f000 fb7d 	bl	1d30 <__gedf2>
    1636:	2800      	cmp	r0, #0
    1638:	dc01      	bgt.n	163e <__aeabi_dcmpgt+0xe>
    163a:	2000      	movs	r0, #0
    163c:	bd10      	pop	{r4, pc}
    163e:	2001      	movs	r0, #1
    1640:	bd10      	pop	{r4, pc}
    1642:	46c0      	nop			; (mov r8, r8)

00001644 <__aeabi_dcmpge>:
    1644:	b510      	push	{r4, lr}
    1646:	f000 fb73 	bl	1d30 <__gedf2>
    164a:	2800      	cmp	r0, #0
    164c:	da01      	bge.n	1652 <__aeabi_dcmpge+0xe>
    164e:	2000      	movs	r0, #0
    1650:	bd10      	pop	{r4, pc}
    1652:	2001      	movs	r0, #1
    1654:	bd10      	pop	{r4, pc}
    1656:	46c0      	nop			; (mov r8, r8)

00001658 <__aeabi_dadd>:
    1658:	b5f0      	push	{r4, r5, r6, r7, lr}
    165a:	4645      	mov	r5, r8
    165c:	4657      	mov	r7, sl
    165e:	464e      	mov	r6, r9
    1660:	4694      	mov	ip, r2
    1662:	004c      	lsls	r4, r1, #1
    1664:	030a      	lsls	r2, r1, #12
    1666:	0fc9      	lsrs	r1, r1, #31
    1668:	b4e0      	push	{r5, r6, r7}
    166a:	4688      	mov	r8, r1
    166c:	1c0e      	adds	r6, r1, #0
    166e:	0319      	lsls	r1, r3, #12
    1670:	0f47      	lsrs	r7, r0, #29
    1672:	00c5      	lsls	r5, r0, #3
    1674:	0a48      	lsrs	r0, r1, #9
    1676:	4661      	mov	r1, ip
    1678:	0f49      	lsrs	r1, r1, #29
    167a:	4301      	orrs	r1, r0
    167c:	4660      	mov	r0, ip
    167e:	0a52      	lsrs	r2, r2, #9
    1680:	4317      	orrs	r7, r2
    1682:	00c0      	lsls	r0, r0, #3
    1684:	005a      	lsls	r2, r3, #1
    1686:	0d64      	lsrs	r4, r4, #21
    1688:	0d52      	lsrs	r2, r2, #21
    168a:	0fdb      	lsrs	r3, r3, #31
    168c:	4684      	mov	ip, r0
    168e:	4598      	cmp	r8, r3
    1690:	d100      	bne.n	1694 <__aeabi_dadd+0x3c>
    1692:	e0a7      	b.n	17e4 <__aeabi_dadd+0x18c>
    1694:	1aa0      	subs	r0, r4, r2
    1696:	2800      	cmp	r0, #0
    1698:	dc00      	bgt.n	169c <__aeabi_dadd+0x44>
    169a:	e101      	b.n	18a0 <__aeabi_dadd+0x248>
    169c:	2a00      	cmp	r2, #0
    169e:	d13d      	bne.n	171c <__aeabi_dadd+0xc4>
    16a0:	4663      	mov	r3, ip
    16a2:	430b      	orrs	r3, r1
    16a4:	d000      	beq.n	16a8 <__aeabi_dadd+0x50>
    16a6:	e0d4      	b.n	1852 <__aeabi_dadd+0x1fa>
    16a8:	076b      	lsls	r3, r5, #29
    16aa:	d100      	bne.n	16ae <__aeabi_dadd+0x56>
    16ac:	e088      	b.n	17c0 <__aeabi_dadd+0x168>
    16ae:	230f      	movs	r3, #15
    16b0:	402b      	ands	r3, r5
    16b2:	2b04      	cmp	r3, #4
    16b4:	d100      	bne.n	16b8 <__aeabi_dadd+0x60>
    16b6:	e083      	b.n	17c0 <__aeabi_dadd+0x168>
    16b8:	1d2a      	adds	r2, r5, #4
    16ba:	42aa      	cmp	r2, r5
    16bc:	41ad      	sbcs	r5, r5
    16be:	2380      	movs	r3, #128	; 0x80
    16c0:	426d      	negs	r5, r5
    16c2:	197f      	adds	r7, r7, r5
    16c4:	041b      	lsls	r3, r3, #16
    16c6:	403b      	ands	r3, r7
    16c8:	4646      	mov	r6, r8
    16ca:	1c15      	adds	r5, r2, #0
    16cc:	2b00      	cmp	r3, #0
    16ce:	d100      	bne.n	16d2 <__aeabi_dadd+0x7a>
    16d0:	e07c      	b.n	17cc <__aeabi_dadd+0x174>
    16d2:	4bcc      	ldr	r3, [pc, #816]	; (1a04 <__aeabi_dadd+0x3ac>)
    16d4:	3401      	adds	r4, #1
    16d6:	429c      	cmp	r4, r3
    16d8:	d100      	bne.n	16dc <__aeabi_dadd+0x84>
    16da:	e0fd      	b.n	18d8 <__aeabi_dadd+0x280>
    16dc:	1c3a      	adds	r2, r7, #0
    16de:	4bca      	ldr	r3, [pc, #808]	; (1a08 <__aeabi_dadd+0x3b0>)
    16e0:	08ed      	lsrs	r5, r5, #3
    16e2:	401a      	ands	r2, r3
    16e4:	0750      	lsls	r0, r2, #29
    16e6:	0564      	lsls	r4, r4, #21
    16e8:	0252      	lsls	r2, r2, #9
    16ea:	4305      	orrs	r5, r0
    16ec:	0b12      	lsrs	r2, r2, #12
    16ee:	0d64      	lsrs	r4, r4, #21
    16f0:	2100      	movs	r1, #0
    16f2:	0312      	lsls	r2, r2, #12
    16f4:	0d0b      	lsrs	r3, r1, #20
    16f6:	051b      	lsls	r3, r3, #20
    16f8:	0564      	lsls	r4, r4, #21
    16fa:	0b12      	lsrs	r2, r2, #12
    16fc:	431a      	orrs	r2, r3
    16fe:	0863      	lsrs	r3, r4, #1
    1700:	4cc2      	ldr	r4, [pc, #776]	; (1a0c <__aeabi_dadd+0x3b4>)
    1702:	07f6      	lsls	r6, r6, #31
    1704:	4014      	ands	r4, r2
    1706:	431c      	orrs	r4, r3
    1708:	0064      	lsls	r4, r4, #1
    170a:	0864      	lsrs	r4, r4, #1
    170c:	4334      	orrs	r4, r6
    170e:	1c28      	adds	r0, r5, #0
    1710:	1c21      	adds	r1, r4, #0
    1712:	bc1c      	pop	{r2, r3, r4}
    1714:	4690      	mov	r8, r2
    1716:	4699      	mov	r9, r3
    1718:	46a2      	mov	sl, r4
    171a:	bdf0      	pop	{r4, r5, r6, r7, pc}
    171c:	4bb9      	ldr	r3, [pc, #740]	; (1a04 <__aeabi_dadd+0x3ac>)
    171e:	429c      	cmp	r4, r3
    1720:	d0c2      	beq.n	16a8 <__aeabi_dadd+0x50>
    1722:	2380      	movs	r3, #128	; 0x80
    1724:	041b      	lsls	r3, r3, #16
    1726:	4319      	orrs	r1, r3
    1728:	2838      	cmp	r0, #56	; 0x38
    172a:	dd00      	ble.n	172e <__aeabi_dadd+0xd6>
    172c:	e0ec      	b.n	1908 <__aeabi_dadd+0x2b0>
    172e:	281f      	cmp	r0, #31
    1730:	dd00      	ble.n	1734 <__aeabi_dadd+0xdc>
    1732:	e121      	b.n	1978 <__aeabi_dadd+0x320>
    1734:	2220      	movs	r2, #32
    1736:	1c0e      	adds	r6, r1, #0
    1738:	4663      	mov	r3, ip
    173a:	1a12      	subs	r2, r2, r0
    173c:	4096      	lsls	r6, r2
    173e:	40c3      	lsrs	r3, r0
    1740:	4333      	orrs	r3, r6
    1742:	4666      	mov	r6, ip
    1744:	4096      	lsls	r6, r2
    1746:	1c32      	adds	r2, r6, #0
    1748:	1e56      	subs	r6, r2, #1
    174a:	41b2      	sbcs	r2, r6
    174c:	4313      	orrs	r3, r2
    174e:	1c0a      	adds	r2, r1, #0
    1750:	40c2      	lsrs	r2, r0
    1752:	1aeb      	subs	r3, r5, r3
    1754:	429d      	cmp	r5, r3
    1756:	41b6      	sbcs	r6, r6
    1758:	1c1d      	adds	r5, r3, #0
    175a:	1aba      	subs	r2, r7, r2
    175c:	4276      	negs	r6, r6
    175e:	1b97      	subs	r7, r2, r6
    1760:	023b      	lsls	r3, r7, #8
    1762:	d400      	bmi.n	1766 <__aeabi_dadd+0x10e>
    1764:	e097      	b.n	1896 <__aeabi_dadd+0x23e>
    1766:	027a      	lsls	r2, r7, #9
    1768:	0a56      	lsrs	r6, r2, #9
    176a:	2e00      	cmp	r6, #0
    176c:	d100      	bne.n	1770 <__aeabi_dadd+0x118>
    176e:	e0b6      	b.n	18de <__aeabi_dadd+0x286>
    1770:	1c30      	adds	r0, r6, #0
    1772:	f001 fa39 	bl	2be8 <__clzsi2>
    1776:	1c03      	adds	r3, r0, #0
    1778:	3b08      	subs	r3, #8
    177a:	2b1f      	cmp	r3, #31
    177c:	dd00      	ble.n	1780 <__aeabi_dadd+0x128>
    177e:	e0b7      	b.n	18f0 <__aeabi_dadd+0x298>
    1780:	409e      	lsls	r6, r3
    1782:	1c37      	adds	r7, r6, #0
    1784:	2628      	movs	r6, #40	; 0x28
    1786:	1c2a      	adds	r2, r5, #0
    1788:	1a36      	subs	r6, r6, r0
    178a:	40f2      	lsrs	r2, r6
    178c:	1c16      	adds	r6, r2, #0
    178e:	409d      	lsls	r5, r3
    1790:	433e      	orrs	r6, r7
    1792:	429c      	cmp	r4, r3
    1794:	dd00      	ble.n	1798 <__aeabi_dadd+0x140>
    1796:	e0b2      	b.n	18fe <__aeabi_dadd+0x2a6>
    1798:	1b1c      	subs	r4, r3, r4
    179a:	1c62      	adds	r2, r4, #1
    179c:	2a1f      	cmp	r2, #31
    179e:	dd00      	ble.n	17a2 <__aeabi_dadd+0x14a>
    17a0:	e0d8      	b.n	1954 <__aeabi_dadd+0x2fc>
    17a2:	231f      	movs	r3, #31
    17a4:	1c29      	adds	r1, r5, #0
    17a6:	1b1c      	subs	r4, r3, r4
    17a8:	1c33      	adds	r3, r6, #0
    17aa:	40a5      	lsls	r5, r4
    17ac:	40a3      	lsls	r3, r4
    17ae:	40d1      	lsrs	r1, r2
    17b0:	1e6c      	subs	r4, r5, #1
    17b2:	41a5      	sbcs	r5, r4
    17b4:	40d6      	lsrs	r6, r2
    17b6:	4319      	orrs	r1, r3
    17b8:	430d      	orrs	r5, r1
    17ba:	1c37      	adds	r7, r6, #0
    17bc:	2400      	movs	r4, #0
    17be:	e773      	b.n	16a8 <__aeabi_dadd+0x50>
    17c0:	2380      	movs	r3, #128	; 0x80
    17c2:	041b      	lsls	r3, r3, #16
    17c4:	403b      	ands	r3, r7
    17c6:	4646      	mov	r6, r8
    17c8:	d000      	beq.n	17cc <__aeabi_dadd+0x174>
    17ca:	e782      	b.n	16d2 <__aeabi_dadd+0x7a>
    17cc:	4b8d      	ldr	r3, [pc, #564]	; (1a04 <__aeabi_dadd+0x3ac>)
    17ce:	08ed      	lsrs	r5, r5, #3
    17d0:	0778      	lsls	r0, r7, #29
    17d2:	4305      	orrs	r5, r0
    17d4:	08fa      	lsrs	r2, r7, #3
    17d6:	429c      	cmp	r4, r3
    17d8:	d032      	beq.n	1840 <__aeabi_dadd+0x1e8>
    17da:	0312      	lsls	r2, r2, #12
    17dc:	0564      	lsls	r4, r4, #21
    17de:	0b12      	lsrs	r2, r2, #12
    17e0:	0d64      	lsrs	r4, r4, #21
    17e2:	e785      	b.n	16f0 <__aeabi_dadd+0x98>
    17e4:	1aa3      	subs	r3, r4, r2
    17e6:	2b00      	cmp	r3, #0
    17e8:	dc00      	bgt.n	17ec <__aeabi_dadd+0x194>
    17ea:	e094      	b.n	1916 <__aeabi_dadd+0x2be>
    17ec:	2a00      	cmp	r2, #0
    17ee:	d03c      	beq.n	186a <__aeabi_dadd+0x212>
    17f0:	4a84      	ldr	r2, [pc, #528]	; (1a04 <__aeabi_dadd+0x3ac>)
    17f2:	4294      	cmp	r4, r2
    17f4:	d100      	bne.n	17f8 <__aeabi_dadd+0x1a0>
    17f6:	e757      	b.n	16a8 <__aeabi_dadd+0x50>
    17f8:	2280      	movs	r2, #128	; 0x80
    17fa:	0412      	lsls	r2, r2, #16
    17fc:	4311      	orrs	r1, r2
    17fe:	2b38      	cmp	r3, #56	; 0x38
    1800:	dc00      	bgt.n	1804 <__aeabi_dadd+0x1ac>
    1802:	e105      	b.n	1a10 <__aeabi_dadd+0x3b8>
    1804:	4663      	mov	r3, ip
    1806:	4319      	orrs	r1, r3
    1808:	1e48      	subs	r0, r1, #1
    180a:	4181      	sbcs	r1, r0
    180c:	2200      	movs	r2, #0
    180e:	b2c8      	uxtb	r0, r1
    1810:	1940      	adds	r0, r0, r5
    1812:	42a8      	cmp	r0, r5
    1814:	419b      	sbcs	r3, r3
    1816:	1c05      	adds	r5, r0, #0
    1818:	19d2      	adds	r2, r2, r7
    181a:	425b      	negs	r3, r3
    181c:	18d7      	adds	r7, r2, r3
    181e:	023b      	lsls	r3, r7, #8
    1820:	d539      	bpl.n	1896 <__aeabi_dadd+0x23e>
    1822:	4b78      	ldr	r3, [pc, #480]	; (1a04 <__aeabi_dadd+0x3ac>)
    1824:	3401      	adds	r4, #1
    1826:	429c      	cmp	r4, r3
    1828:	d100      	bne.n	182c <__aeabi_dadd+0x1d4>
    182a:	e14c      	b.n	1ac6 <__aeabi_dadd+0x46e>
    182c:	2001      	movs	r0, #1
    182e:	4a76      	ldr	r2, [pc, #472]	; (1a08 <__aeabi_dadd+0x3b0>)
    1830:	086b      	lsrs	r3, r5, #1
    1832:	403a      	ands	r2, r7
    1834:	4028      	ands	r0, r5
    1836:	4318      	orrs	r0, r3
    1838:	07d5      	lsls	r5, r2, #31
    183a:	4305      	orrs	r5, r0
    183c:	0857      	lsrs	r7, r2, #1
    183e:	e733      	b.n	16a8 <__aeabi_dadd+0x50>
    1840:	1c2b      	adds	r3, r5, #0
    1842:	4313      	orrs	r3, r2
    1844:	d048      	beq.n	18d8 <__aeabi_dadd+0x280>
    1846:	2380      	movs	r3, #128	; 0x80
    1848:	031b      	lsls	r3, r3, #12
    184a:	431a      	orrs	r2, r3
    184c:	0312      	lsls	r2, r2, #12
    184e:	0b12      	lsrs	r2, r2, #12
    1850:	e74e      	b.n	16f0 <__aeabi_dadd+0x98>
    1852:	3801      	subs	r0, #1
    1854:	2800      	cmp	r0, #0
    1856:	d178      	bne.n	194a <__aeabi_dadd+0x2f2>
    1858:	4663      	mov	r3, ip
    185a:	1aee      	subs	r6, r5, r3
    185c:	42b5      	cmp	r5, r6
    185e:	419b      	sbcs	r3, r3
    1860:	1a7a      	subs	r2, r7, r1
    1862:	425b      	negs	r3, r3
    1864:	1ad7      	subs	r7, r2, r3
    1866:	1c35      	adds	r5, r6, #0
    1868:	e77a      	b.n	1760 <__aeabi_dadd+0x108>
    186a:	1c02      	adds	r2, r0, #0
    186c:	430a      	orrs	r2, r1
    186e:	d100      	bne.n	1872 <__aeabi_dadd+0x21a>
    1870:	e71a      	b.n	16a8 <__aeabi_dadd+0x50>
    1872:	3b01      	subs	r3, #1
    1874:	2b00      	cmp	r3, #0
    1876:	d000      	beq.n	187a <__aeabi_dadd+0x222>
    1878:	e0f2      	b.n	1a60 <__aeabi_dadd+0x408>
    187a:	1940      	adds	r0, r0, r5
    187c:	42a8      	cmp	r0, r5
    187e:	419b      	sbcs	r3, r3
    1880:	19ca      	adds	r2, r1, r7
    1882:	425b      	negs	r3, r3
    1884:	18d7      	adds	r7, r2, r3
    1886:	1c05      	adds	r5, r0, #0
    1888:	e7c9      	b.n	181e <__aeabi_dadd+0x1c6>
    188a:	1c13      	adds	r3, r2, #0
    188c:	4333      	orrs	r3, r6
    188e:	d100      	bne.n	1892 <__aeabi_dadd+0x23a>
    1890:	e118      	b.n	1ac4 <__aeabi_dadd+0x46c>
    1892:	1c17      	adds	r7, r2, #0
    1894:	1c35      	adds	r5, r6, #0
    1896:	4646      	mov	r6, r8
    1898:	076b      	lsls	r3, r5, #29
    189a:	d000      	beq.n	189e <__aeabi_dadd+0x246>
    189c:	e707      	b.n	16ae <__aeabi_dadd+0x56>
    189e:	e795      	b.n	17cc <__aeabi_dadd+0x174>
    18a0:	2800      	cmp	r0, #0
    18a2:	d17a      	bne.n	199a <__aeabi_dadd+0x342>
    18a4:	1c62      	adds	r2, r4, #1
    18a6:	0552      	lsls	r2, r2, #21
    18a8:	0d52      	lsrs	r2, r2, #21
    18aa:	2a01      	cmp	r2, #1
    18ac:	dc00      	bgt.n	18b0 <__aeabi_dadd+0x258>
    18ae:	e0fb      	b.n	1aa8 <__aeabi_dadd+0x450>
    18b0:	4662      	mov	r2, ip
    18b2:	1aaa      	subs	r2, r5, r2
    18b4:	4295      	cmp	r5, r2
    18b6:	41b6      	sbcs	r6, r6
    18b8:	4691      	mov	r9, r2
    18ba:	1a78      	subs	r0, r7, r1
    18bc:	4272      	negs	r2, r6
    18be:	1a86      	subs	r6, r0, r2
    18c0:	0232      	lsls	r2, r6, #8
    18c2:	d400      	bmi.n	18c6 <__aeabi_dadd+0x26e>
    18c4:	e093      	b.n	19ee <__aeabi_dadd+0x396>
    18c6:	4662      	mov	r2, ip
    18c8:	1b55      	subs	r5, r2, r5
    18ca:	45ac      	cmp	ip, r5
    18cc:	4180      	sbcs	r0, r0
    18ce:	1bcf      	subs	r7, r1, r7
    18d0:	4240      	negs	r0, r0
    18d2:	1a3e      	subs	r6, r7, r0
    18d4:	4698      	mov	r8, r3
    18d6:	e748      	b.n	176a <__aeabi_dadd+0x112>
    18d8:	2200      	movs	r2, #0
    18da:	2500      	movs	r5, #0
    18dc:	e708      	b.n	16f0 <__aeabi_dadd+0x98>
    18de:	1c28      	adds	r0, r5, #0
    18e0:	f001 f982 	bl	2be8 <__clzsi2>
    18e4:	3020      	adds	r0, #32
    18e6:	1c03      	adds	r3, r0, #0
    18e8:	3b08      	subs	r3, #8
    18ea:	2b1f      	cmp	r3, #31
    18ec:	dc00      	bgt.n	18f0 <__aeabi_dadd+0x298>
    18ee:	e747      	b.n	1780 <__aeabi_dadd+0x128>
    18f0:	3828      	subs	r0, #40	; 0x28
    18f2:	4085      	lsls	r5, r0
    18f4:	1c2e      	adds	r6, r5, #0
    18f6:	2500      	movs	r5, #0
    18f8:	429c      	cmp	r4, r3
    18fa:	dc00      	bgt.n	18fe <__aeabi_dadd+0x2a6>
    18fc:	e74c      	b.n	1798 <__aeabi_dadd+0x140>
    18fe:	4a42      	ldr	r2, [pc, #264]	; (1a08 <__aeabi_dadd+0x3b0>)
    1900:	1ae4      	subs	r4, r4, r3
    1902:	4016      	ands	r6, r2
    1904:	1c37      	adds	r7, r6, #0
    1906:	e6cf      	b.n	16a8 <__aeabi_dadd+0x50>
    1908:	4663      	mov	r3, ip
    190a:	4319      	orrs	r1, r3
    190c:	1e4b      	subs	r3, r1, #1
    190e:	4199      	sbcs	r1, r3
    1910:	2200      	movs	r2, #0
    1912:	b2cb      	uxtb	r3, r1
    1914:	e71d      	b.n	1752 <__aeabi_dadd+0xfa>
    1916:	2b00      	cmp	r3, #0
    1918:	d000      	beq.n	191c <__aeabi_dadd+0x2c4>
    191a:	e0f2      	b.n	1b02 <__aeabi_dadd+0x4aa>
    191c:	1c60      	adds	r0, r4, #1
    191e:	0543      	lsls	r3, r0, #21
    1920:	0d5b      	lsrs	r3, r3, #21
    1922:	2b01      	cmp	r3, #1
    1924:	dc00      	bgt.n	1928 <__aeabi_dadd+0x2d0>
    1926:	e0a4      	b.n	1a72 <__aeabi_dadd+0x41a>
    1928:	4b36      	ldr	r3, [pc, #216]	; (1a04 <__aeabi_dadd+0x3ac>)
    192a:	4298      	cmp	r0, r3
    192c:	d100      	bne.n	1930 <__aeabi_dadd+0x2d8>
    192e:	e121      	b.n	1b74 <__aeabi_dadd+0x51c>
    1930:	4663      	mov	r3, ip
    1932:	195c      	adds	r4, r3, r5
    1934:	42ac      	cmp	r4, r5
    1936:	419b      	sbcs	r3, r3
    1938:	19cf      	adds	r7, r1, r7
    193a:	425b      	negs	r3, r3
    193c:	18fa      	adds	r2, r7, r3
    193e:	0864      	lsrs	r4, r4, #1
    1940:	07d5      	lsls	r5, r2, #31
    1942:	4325      	orrs	r5, r4
    1944:	0857      	lsrs	r7, r2, #1
    1946:	1c04      	adds	r4, r0, #0
    1948:	e6ae      	b.n	16a8 <__aeabi_dadd+0x50>
    194a:	4b2e      	ldr	r3, [pc, #184]	; (1a04 <__aeabi_dadd+0x3ac>)
    194c:	429c      	cmp	r4, r3
    194e:	d000      	beq.n	1952 <__aeabi_dadd+0x2fa>
    1950:	e6ea      	b.n	1728 <__aeabi_dadd+0xd0>
    1952:	e6a9      	b.n	16a8 <__aeabi_dadd+0x50>
    1954:	1c21      	adds	r1, r4, #0
    1956:	1c33      	adds	r3, r6, #0
    1958:	391f      	subs	r1, #31
    195a:	40cb      	lsrs	r3, r1
    195c:	1c19      	adds	r1, r3, #0
    195e:	2a20      	cmp	r2, #32
    1960:	d100      	bne.n	1964 <__aeabi_dadd+0x30c>
    1962:	e082      	b.n	1a6a <__aeabi_dadd+0x412>
    1964:	233f      	movs	r3, #63	; 0x3f
    1966:	1b1c      	subs	r4, r3, r4
    1968:	40a6      	lsls	r6, r4
    196a:	4335      	orrs	r5, r6
    196c:	1e6e      	subs	r6, r5, #1
    196e:	41b5      	sbcs	r5, r6
    1970:	2700      	movs	r7, #0
    1972:	430d      	orrs	r5, r1
    1974:	2400      	movs	r4, #0
    1976:	e78e      	b.n	1896 <__aeabi_dadd+0x23e>
    1978:	1c03      	adds	r3, r0, #0
    197a:	1c0e      	adds	r6, r1, #0
    197c:	3b20      	subs	r3, #32
    197e:	40de      	lsrs	r6, r3
    1980:	2820      	cmp	r0, #32
    1982:	d074      	beq.n	1a6e <__aeabi_dadd+0x416>
    1984:	2340      	movs	r3, #64	; 0x40
    1986:	1a1b      	subs	r3, r3, r0
    1988:	4099      	lsls	r1, r3
    198a:	1c0b      	adds	r3, r1, #0
    198c:	4662      	mov	r2, ip
    198e:	4313      	orrs	r3, r2
    1990:	1e59      	subs	r1, r3, #1
    1992:	418b      	sbcs	r3, r1
    1994:	2200      	movs	r2, #0
    1996:	4333      	orrs	r3, r6
    1998:	e6db      	b.n	1752 <__aeabi_dadd+0xfa>
    199a:	2c00      	cmp	r4, #0
    199c:	d050      	beq.n	1a40 <__aeabi_dadd+0x3e8>
    199e:	4c19      	ldr	r4, [pc, #100]	; (1a04 <__aeabi_dadd+0x3ac>)
    19a0:	42a2      	cmp	r2, r4
    19a2:	d100      	bne.n	19a6 <__aeabi_dadd+0x34e>
    19a4:	e0a8      	b.n	1af8 <__aeabi_dadd+0x4a0>
    19a6:	2480      	movs	r4, #128	; 0x80
    19a8:	0424      	lsls	r4, r4, #16
    19aa:	4240      	negs	r0, r0
    19ac:	4327      	orrs	r7, r4
    19ae:	2838      	cmp	r0, #56	; 0x38
    19b0:	dd00      	ble.n	19b4 <__aeabi_dadd+0x35c>
    19b2:	e0d9      	b.n	1b68 <__aeabi_dadd+0x510>
    19b4:	281f      	cmp	r0, #31
    19b6:	dd00      	ble.n	19ba <__aeabi_dadd+0x362>
    19b8:	e139      	b.n	1c2e <__aeabi_dadd+0x5d6>
    19ba:	2420      	movs	r4, #32
    19bc:	1c3e      	adds	r6, r7, #0
    19be:	1a24      	subs	r4, r4, r0
    19c0:	40a6      	lsls	r6, r4
    19c2:	46b0      	mov	r8, r6
    19c4:	1c2e      	adds	r6, r5, #0
    19c6:	46a1      	mov	r9, r4
    19c8:	40c6      	lsrs	r6, r0
    19ca:	4644      	mov	r4, r8
    19cc:	4326      	orrs	r6, r4
    19ce:	464c      	mov	r4, r9
    19d0:	40a5      	lsls	r5, r4
    19d2:	1e6c      	subs	r4, r5, #1
    19d4:	41a5      	sbcs	r5, r4
    19d6:	40c7      	lsrs	r7, r0
    19d8:	4335      	orrs	r5, r6
    19da:	4660      	mov	r0, ip
    19dc:	1b45      	subs	r5, r0, r5
    19de:	1bcf      	subs	r7, r1, r7
    19e0:	45ac      	cmp	ip, r5
    19e2:	4189      	sbcs	r1, r1
    19e4:	4249      	negs	r1, r1
    19e6:	1a7f      	subs	r7, r7, r1
    19e8:	1c14      	adds	r4, r2, #0
    19ea:	4698      	mov	r8, r3
    19ec:	e6b8      	b.n	1760 <__aeabi_dadd+0x108>
    19ee:	464b      	mov	r3, r9
    19f0:	464d      	mov	r5, r9
    19f2:	4333      	orrs	r3, r6
    19f4:	d000      	beq.n	19f8 <__aeabi_dadd+0x3a0>
    19f6:	e6b8      	b.n	176a <__aeabi_dadd+0x112>
    19f8:	2600      	movs	r6, #0
    19fa:	2700      	movs	r7, #0
    19fc:	2400      	movs	r4, #0
    19fe:	2500      	movs	r5, #0
    1a00:	e6e4      	b.n	17cc <__aeabi_dadd+0x174>
    1a02:	46c0      	nop			; (mov r8, r8)
    1a04:	000007ff 	.word	0x000007ff
    1a08:	ff7fffff 	.word	0xff7fffff
    1a0c:	800fffff 	.word	0x800fffff
    1a10:	2b1f      	cmp	r3, #31
    1a12:	dc5b      	bgt.n	1acc <__aeabi_dadd+0x474>
    1a14:	2220      	movs	r2, #32
    1a16:	1c08      	adds	r0, r1, #0
    1a18:	1ad2      	subs	r2, r2, r3
    1a1a:	4090      	lsls	r0, r2
    1a1c:	4681      	mov	r9, r0
    1a1e:	4660      	mov	r0, ip
    1a20:	4692      	mov	sl, r2
    1a22:	40d8      	lsrs	r0, r3
    1a24:	464a      	mov	r2, r9
    1a26:	4310      	orrs	r0, r2
    1a28:	4681      	mov	r9, r0
    1a2a:	4652      	mov	r2, sl
    1a2c:	4660      	mov	r0, ip
    1a2e:	4090      	lsls	r0, r2
    1a30:	1c02      	adds	r2, r0, #0
    1a32:	1e50      	subs	r0, r2, #1
    1a34:	4182      	sbcs	r2, r0
    1a36:	4648      	mov	r0, r9
    1a38:	4310      	orrs	r0, r2
    1a3a:	1c0a      	adds	r2, r1, #0
    1a3c:	40da      	lsrs	r2, r3
    1a3e:	e6e7      	b.n	1810 <__aeabi_dadd+0x1b8>
    1a40:	1c3c      	adds	r4, r7, #0
    1a42:	432c      	orrs	r4, r5
    1a44:	d058      	beq.n	1af8 <__aeabi_dadd+0x4a0>
    1a46:	43c0      	mvns	r0, r0
    1a48:	2800      	cmp	r0, #0
    1a4a:	d151      	bne.n	1af0 <__aeabi_dadd+0x498>
    1a4c:	4660      	mov	r0, ip
    1a4e:	1b45      	subs	r5, r0, r5
    1a50:	45ac      	cmp	ip, r5
    1a52:	4180      	sbcs	r0, r0
    1a54:	1bcf      	subs	r7, r1, r7
    1a56:	4240      	negs	r0, r0
    1a58:	1a3f      	subs	r7, r7, r0
    1a5a:	1c14      	adds	r4, r2, #0
    1a5c:	4698      	mov	r8, r3
    1a5e:	e67f      	b.n	1760 <__aeabi_dadd+0x108>
    1a60:	4a8f      	ldr	r2, [pc, #572]	; (1ca0 <__aeabi_dadd+0x648>)
    1a62:	4294      	cmp	r4, r2
    1a64:	d000      	beq.n	1a68 <__aeabi_dadd+0x410>
    1a66:	e6ca      	b.n	17fe <__aeabi_dadd+0x1a6>
    1a68:	e61e      	b.n	16a8 <__aeabi_dadd+0x50>
    1a6a:	2600      	movs	r6, #0
    1a6c:	e77d      	b.n	196a <__aeabi_dadd+0x312>
    1a6e:	2300      	movs	r3, #0
    1a70:	e78c      	b.n	198c <__aeabi_dadd+0x334>
    1a72:	1c3b      	adds	r3, r7, #0
    1a74:	432b      	orrs	r3, r5
    1a76:	2c00      	cmp	r4, #0
    1a78:	d000      	beq.n	1a7c <__aeabi_dadd+0x424>
    1a7a:	e0bd      	b.n	1bf8 <__aeabi_dadd+0x5a0>
    1a7c:	2b00      	cmp	r3, #0
    1a7e:	d100      	bne.n	1a82 <__aeabi_dadd+0x42a>
    1a80:	e0f5      	b.n	1c6e <__aeabi_dadd+0x616>
    1a82:	4663      	mov	r3, ip
    1a84:	430b      	orrs	r3, r1
    1a86:	d100      	bne.n	1a8a <__aeabi_dadd+0x432>
    1a88:	e60e      	b.n	16a8 <__aeabi_dadd+0x50>
    1a8a:	4663      	mov	r3, ip
    1a8c:	195b      	adds	r3, r3, r5
    1a8e:	42ab      	cmp	r3, r5
    1a90:	4180      	sbcs	r0, r0
    1a92:	19ca      	adds	r2, r1, r7
    1a94:	4240      	negs	r0, r0
    1a96:	1817      	adds	r7, r2, r0
    1a98:	023a      	lsls	r2, r7, #8
    1a9a:	d400      	bmi.n	1a9e <__aeabi_dadd+0x446>
    1a9c:	e0fc      	b.n	1c98 <__aeabi_dadd+0x640>
    1a9e:	4a81      	ldr	r2, [pc, #516]	; (1ca4 <__aeabi_dadd+0x64c>)
    1aa0:	1c1d      	adds	r5, r3, #0
    1aa2:	4017      	ands	r7, r2
    1aa4:	3401      	adds	r4, #1
    1aa6:	e5ff      	b.n	16a8 <__aeabi_dadd+0x50>
    1aa8:	1c3a      	adds	r2, r7, #0
    1aaa:	432a      	orrs	r2, r5
    1aac:	2c00      	cmp	r4, #0
    1aae:	d151      	bne.n	1b54 <__aeabi_dadd+0x4fc>
    1ab0:	2a00      	cmp	r2, #0
    1ab2:	d000      	beq.n	1ab6 <__aeabi_dadd+0x45e>
    1ab4:	e085      	b.n	1bc2 <__aeabi_dadd+0x56a>
    1ab6:	4662      	mov	r2, ip
    1ab8:	430a      	orrs	r2, r1
    1aba:	d003      	beq.n	1ac4 <__aeabi_dadd+0x46c>
    1abc:	1c0f      	adds	r7, r1, #0
    1abe:	4665      	mov	r5, ip
    1ac0:	4698      	mov	r8, r3
    1ac2:	e5f1      	b.n	16a8 <__aeabi_dadd+0x50>
    1ac4:	2600      	movs	r6, #0
    1ac6:	2700      	movs	r7, #0
    1ac8:	2500      	movs	r5, #0
    1aca:	e67f      	b.n	17cc <__aeabi_dadd+0x174>
    1acc:	1c18      	adds	r0, r3, #0
    1ace:	1c0a      	adds	r2, r1, #0
    1ad0:	3820      	subs	r0, #32
    1ad2:	40c2      	lsrs	r2, r0
    1ad4:	2b20      	cmp	r3, #32
    1ad6:	d100      	bne.n	1ada <__aeabi_dadd+0x482>
    1ad8:	e0a7      	b.n	1c2a <__aeabi_dadd+0x5d2>
    1ada:	2040      	movs	r0, #64	; 0x40
    1adc:	1ac0      	subs	r0, r0, r3
    1ade:	4081      	lsls	r1, r0
    1ae0:	1c08      	adds	r0, r1, #0
    1ae2:	4663      	mov	r3, ip
    1ae4:	4318      	orrs	r0, r3
    1ae6:	1e41      	subs	r1, r0, #1
    1ae8:	4188      	sbcs	r0, r1
    1aea:	4310      	orrs	r0, r2
    1aec:	2200      	movs	r2, #0
    1aee:	e68f      	b.n	1810 <__aeabi_dadd+0x1b8>
    1af0:	4c6b      	ldr	r4, [pc, #428]	; (1ca0 <__aeabi_dadd+0x648>)
    1af2:	42a2      	cmp	r2, r4
    1af4:	d000      	beq.n	1af8 <__aeabi_dadd+0x4a0>
    1af6:	e75a      	b.n	19ae <__aeabi_dadd+0x356>
    1af8:	1c0f      	adds	r7, r1, #0
    1afa:	4665      	mov	r5, ip
    1afc:	1c14      	adds	r4, r2, #0
    1afe:	4698      	mov	r8, r3
    1b00:	e5d2      	b.n	16a8 <__aeabi_dadd+0x50>
    1b02:	2c00      	cmp	r4, #0
    1b04:	d13a      	bne.n	1b7c <__aeabi_dadd+0x524>
    1b06:	1c38      	adds	r0, r7, #0
    1b08:	4328      	orrs	r0, r5
    1b0a:	d071      	beq.n	1bf0 <__aeabi_dadd+0x598>
    1b0c:	43db      	mvns	r3, r3
    1b0e:	2b00      	cmp	r3, #0
    1b10:	d018      	beq.n	1b44 <__aeabi_dadd+0x4ec>
    1b12:	4863      	ldr	r0, [pc, #396]	; (1ca0 <__aeabi_dadd+0x648>)
    1b14:	4282      	cmp	r2, r0
    1b16:	d06b      	beq.n	1bf0 <__aeabi_dadd+0x598>
    1b18:	2b38      	cmp	r3, #56	; 0x38
    1b1a:	dd00      	ble.n	1b1e <__aeabi_dadd+0x4c6>
    1b1c:	e09d      	b.n	1c5a <__aeabi_dadd+0x602>
    1b1e:	2b1f      	cmp	r3, #31
    1b20:	dd00      	ble.n	1b24 <__aeabi_dadd+0x4cc>
    1b22:	e0a7      	b.n	1c74 <__aeabi_dadd+0x61c>
    1b24:	2020      	movs	r0, #32
    1b26:	1c3c      	adds	r4, r7, #0
    1b28:	1ac0      	subs	r0, r0, r3
    1b2a:	4084      	lsls	r4, r0
    1b2c:	46a1      	mov	r9, r4
    1b2e:	1c2c      	adds	r4, r5, #0
    1b30:	4682      	mov	sl, r0
    1b32:	40dc      	lsrs	r4, r3
    1b34:	4648      	mov	r0, r9
    1b36:	4304      	orrs	r4, r0
    1b38:	4650      	mov	r0, sl
    1b3a:	4085      	lsls	r5, r0
    1b3c:	1e68      	subs	r0, r5, #1
    1b3e:	4185      	sbcs	r5, r0
    1b40:	40df      	lsrs	r7, r3
    1b42:	4325      	orrs	r5, r4
    1b44:	4465      	add	r5, ip
    1b46:	4565      	cmp	r5, ip
    1b48:	419b      	sbcs	r3, r3
    1b4a:	187f      	adds	r7, r7, r1
    1b4c:	425b      	negs	r3, r3
    1b4e:	18ff      	adds	r7, r7, r3
    1b50:	1c14      	adds	r4, r2, #0
    1b52:	e664      	b.n	181e <__aeabi_dadd+0x1c6>
    1b54:	2a00      	cmp	r2, #0
    1b56:	d119      	bne.n	1b8c <__aeabi_dadd+0x534>
    1b58:	4662      	mov	r2, ip
    1b5a:	430a      	orrs	r2, r1
    1b5c:	d077      	beq.n	1c4e <__aeabi_dadd+0x5f6>
    1b5e:	1c0f      	adds	r7, r1, #0
    1b60:	4665      	mov	r5, ip
    1b62:	4698      	mov	r8, r3
    1b64:	4c4e      	ldr	r4, [pc, #312]	; (1ca0 <__aeabi_dadd+0x648>)
    1b66:	e59f      	b.n	16a8 <__aeabi_dadd+0x50>
    1b68:	433d      	orrs	r5, r7
    1b6a:	1e6f      	subs	r7, r5, #1
    1b6c:	41bd      	sbcs	r5, r7
    1b6e:	2700      	movs	r7, #0
    1b70:	b2ed      	uxtb	r5, r5
    1b72:	e732      	b.n	19da <__aeabi_dadd+0x382>
    1b74:	1c04      	adds	r4, r0, #0
    1b76:	2700      	movs	r7, #0
    1b78:	2500      	movs	r5, #0
    1b7a:	e627      	b.n	17cc <__aeabi_dadd+0x174>
    1b7c:	4848      	ldr	r0, [pc, #288]	; (1ca0 <__aeabi_dadd+0x648>)
    1b7e:	4282      	cmp	r2, r0
    1b80:	d036      	beq.n	1bf0 <__aeabi_dadd+0x598>
    1b82:	2080      	movs	r0, #128	; 0x80
    1b84:	0400      	lsls	r0, r0, #16
    1b86:	425b      	negs	r3, r3
    1b88:	4307      	orrs	r7, r0
    1b8a:	e7c5      	b.n	1b18 <__aeabi_dadd+0x4c0>
    1b8c:	4662      	mov	r2, ip
    1b8e:	430a      	orrs	r2, r1
    1b90:	d049      	beq.n	1c26 <__aeabi_dadd+0x5ce>
    1b92:	2480      	movs	r4, #128	; 0x80
    1b94:	08ed      	lsrs	r5, r5, #3
    1b96:	0778      	lsls	r0, r7, #29
    1b98:	08fa      	lsrs	r2, r7, #3
    1b9a:	0324      	lsls	r4, r4, #12
    1b9c:	4328      	orrs	r0, r5
    1b9e:	4222      	tst	r2, r4
    1ba0:	d009      	beq.n	1bb6 <__aeabi_dadd+0x55e>
    1ba2:	08ce      	lsrs	r6, r1, #3
    1ba4:	4226      	tst	r6, r4
    1ba6:	d106      	bne.n	1bb6 <__aeabi_dadd+0x55e>
    1ba8:	4662      	mov	r2, ip
    1baa:	074f      	lsls	r7, r1, #29
    1bac:	1c38      	adds	r0, r7, #0
    1bae:	08d2      	lsrs	r2, r2, #3
    1bb0:	4310      	orrs	r0, r2
    1bb2:	4698      	mov	r8, r3
    1bb4:	1c32      	adds	r2, r6, #0
    1bb6:	00d2      	lsls	r2, r2, #3
    1bb8:	0f47      	lsrs	r7, r0, #29
    1bba:	4317      	orrs	r7, r2
    1bbc:	00c5      	lsls	r5, r0, #3
    1bbe:	4c38      	ldr	r4, [pc, #224]	; (1ca0 <__aeabi_dadd+0x648>)
    1bc0:	e572      	b.n	16a8 <__aeabi_dadd+0x50>
    1bc2:	4662      	mov	r2, ip
    1bc4:	430a      	orrs	r2, r1
    1bc6:	d100      	bne.n	1bca <__aeabi_dadd+0x572>
    1bc8:	e56e      	b.n	16a8 <__aeabi_dadd+0x50>
    1bca:	4662      	mov	r2, ip
    1bcc:	1aae      	subs	r6, r5, r2
    1bce:	42b5      	cmp	r5, r6
    1bd0:	4192      	sbcs	r2, r2
    1bd2:	1a78      	subs	r0, r7, r1
    1bd4:	4252      	negs	r2, r2
    1bd6:	1a82      	subs	r2, r0, r2
    1bd8:	0210      	lsls	r0, r2, #8
    1bda:	d400      	bmi.n	1bde <__aeabi_dadd+0x586>
    1bdc:	e655      	b.n	188a <__aeabi_dadd+0x232>
    1bde:	4662      	mov	r2, ip
    1be0:	1b55      	subs	r5, r2, r5
    1be2:	45ac      	cmp	ip, r5
    1be4:	4180      	sbcs	r0, r0
    1be6:	1bca      	subs	r2, r1, r7
    1be8:	4240      	negs	r0, r0
    1bea:	1a17      	subs	r7, r2, r0
    1bec:	4698      	mov	r8, r3
    1bee:	e55b      	b.n	16a8 <__aeabi_dadd+0x50>
    1bf0:	1c0f      	adds	r7, r1, #0
    1bf2:	4665      	mov	r5, ip
    1bf4:	1c14      	adds	r4, r2, #0
    1bf6:	e557      	b.n	16a8 <__aeabi_dadd+0x50>
    1bf8:	2b00      	cmp	r3, #0
    1bfa:	d034      	beq.n	1c66 <__aeabi_dadd+0x60e>
    1bfc:	4663      	mov	r3, ip
    1bfe:	430b      	orrs	r3, r1
    1c00:	d011      	beq.n	1c26 <__aeabi_dadd+0x5ce>
    1c02:	2480      	movs	r4, #128	; 0x80
    1c04:	08ed      	lsrs	r5, r5, #3
    1c06:	0778      	lsls	r0, r7, #29
    1c08:	08fa      	lsrs	r2, r7, #3
    1c0a:	0324      	lsls	r4, r4, #12
    1c0c:	4328      	orrs	r0, r5
    1c0e:	4222      	tst	r2, r4
    1c10:	d0d1      	beq.n	1bb6 <__aeabi_dadd+0x55e>
    1c12:	08cb      	lsrs	r3, r1, #3
    1c14:	4223      	tst	r3, r4
    1c16:	d1ce      	bne.n	1bb6 <__aeabi_dadd+0x55e>
    1c18:	4662      	mov	r2, ip
    1c1a:	074f      	lsls	r7, r1, #29
    1c1c:	1c38      	adds	r0, r7, #0
    1c1e:	08d2      	lsrs	r2, r2, #3
    1c20:	4310      	orrs	r0, r2
    1c22:	1c1a      	adds	r2, r3, #0
    1c24:	e7c7      	b.n	1bb6 <__aeabi_dadd+0x55e>
    1c26:	4c1e      	ldr	r4, [pc, #120]	; (1ca0 <__aeabi_dadd+0x648>)
    1c28:	e53e      	b.n	16a8 <__aeabi_dadd+0x50>
    1c2a:	2000      	movs	r0, #0
    1c2c:	e759      	b.n	1ae2 <__aeabi_dadd+0x48a>
    1c2e:	1c04      	adds	r4, r0, #0
    1c30:	1c3e      	adds	r6, r7, #0
    1c32:	3c20      	subs	r4, #32
    1c34:	40e6      	lsrs	r6, r4
    1c36:	1c34      	adds	r4, r6, #0
    1c38:	2820      	cmp	r0, #32
    1c3a:	d02b      	beq.n	1c94 <__aeabi_dadd+0x63c>
    1c3c:	2640      	movs	r6, #64	; 0x40
    1c3e:	1a30      	subs	r0, r6, r0
    1c40:	4087      	lsls	r7, r0
    1c42:	433d      	orrs	r5, r7
    1c44:	1e6f      	subs	r7, r5, #1
    1c46:	41bd      	sbcs	r5, r7
    1c48:	2700      	movs	r7, #0
    1c4a:	4325      	orrs	r5, r4
    1c4c:	e6c5      	b.n	19da <__aeabi_dadd+0x382>
    1c4e:	2780      	movs	r7, #128	; 0x80
    1c50:	2600      	movs	r6, #0
    1c52:	03ff      	lsls	r7, r7, #15
    1c54:	4c12      	ldr	r4, [pc, #72]	; (1ca0 <__aeabi_dadd+0x648>)
    1c56:	2500      	movs	r5, #0
    1c58:	e5b8      	b.n	17cc <__aeabi_dadd+0x174>
    1c5a:	433d      	orrs	r5, r7
    1c5c:	1e6f      	subs	r7, r5, #1
    1c5e:	41bd      	sbcs	r5, r7
    1c60:	2700      	movs	r7, #0
    1c62:	b2ed      	uxtb	r5, r5
    1c64:	e76e      	b.n	1b44 <__aeabi_dadd+0x4ec>
    1c66:	1c0f      	adds	r7, r1, #0
    1c68:	4665      	mov	r5, ip
    1c6a:	4c0d      	ldr	r4, [pc, #52]	; (1ca0 <__aeabi_dadd+0x648>)
    1c6c:	e51c      	b.n	16a8 <__aeabi_dadd+0x50>
    1c6e:	1c0f      	adds	r7, r1, #0
    1c70:	4665      	mov	r5, ip
    1c72:	e519      	b.n	16a8 <__aeabi_dadd+0x50>
    1c74:	1c1c      	adds	r4, r3, #0
    1c76:	1c38      	adds	r0, r7, #0
    1c78:	3c20      	subs	r4, #32
    1c7a:	40e0      	lsrs	r0, r4
    1c7c:	1c04      	adds	r4, r0, #0
    1c7e:	2b20      	cmp	r3, #32
    1c80:	d00c      	beq.n	1c9c <__aeabi_dadd+0x644>
    1c82:	2040      	movs	r0, #64	; 0x40
    1c84:	1ac3      	subs	r3, r0, r3
    1c86:	409f      	lsls	r7, r3
    1c88:	433d      	orrs	r5, r7
    1c8a:	1e6f      	subs	r7, r5, #1
    1c8c:	41bd      	sbcs	r5, r7
    1c8e:	2700      	movs	r7, #0
    1c90:	4325      	orrs	r5, r4
    1c92:	e757      	b.n	1b44 <__aeabi_dadd+0x4ec>
    1c94:	2700      	movs	r7, #0
    1c96:	e7d4      	b.n	1c42 <__aeabi_dadd+0x5ea>
    1c98:	1c1d      	adds	r5, r3, #0
    1c9a:	e5fc      	b.n	1896 <__aeabi_dadd+0x23e>
    1c9c:	2700      	movs	r7, #0
    1c9e:	e7f3      	b.n	1c88 <__aeabi_dadd+0x630>
    1ca0:	000007ff 	.word	0x000007ff
    1ca4:	ff7fffff 	.word	0xff7fffff

00001ca8 <__eqdf2>:
    1ca8:	b5f0      	push	{r4, r5, r6, r7, lr}
    1caa:	465f      	mov	r7, fp
    1cac:	464d      	mov	r5, r9
    1cae:	4644      	mov	r4, r8
    1cb0:	4656      	mov	r6, sl
    1cb2:	b4f0      	push	{r4, r5, r6, r7}
    1cb4:	031f      	lsls	r7, r3, #12
    1cb6:	005c      	lsls	r4, r3, #1
    1cb8:	0fdb      	lsrs	r3, r3, #31
    1cba:	4699      	mov	r9, r3
    1cbc:	4b1b      	ldr	r3, [pc, #108]	; (1d2c <__eqdf2+0x84>)
    1cbe:	030e      	lsls	r6, r1, #12
    1cc0:	004d      	lsls	r5, r1, #1
    1cc2:	0fc9      	lsrs	r1, r1, #31
    1cc4:	4684      	mov	ip, r0
    1cc6:	0b36      	lsrs	r6, r6, #12
    1cc8:	0d6d      	lsrs	r5, r5, #21
    1cca:	468b      	mov	fp, r1
    1ccc:	4690      	mov	r8, r2
    1cce:	0b3f      	lsrs	r7, r7, #12
    1cd0:	0d64      	lsrs	r4, r4, #21
    1cd2:	429d      	cmp	r5, r3
    1cd4:	d00c      	beq.n	1cf0 <__eqdf2+0x48>
    1cd6:	4b15      	ldr	r3, [pc, #84]	; (1d2c <__eqdf2+0x84>)
    1cd8:	429c      	cmp	r4, r3
    1cda:	d010      	beq.n	1cfe <__eqdf2+0x56>
    1cdc:	2301      	movs	r3, #1
    1cde:	42a5      	cmp	r5, r4
    1ce0:	d014      	beq.n	1d0c <__eqdf2+0x64>
    1ce2:	1c18      	adds	r0, r3, #0
    1ce4:	bc3c      	pop	{r2, r3, r4, r5}
    1ce6:	4690      	mov	r8, r2
    1ce8:	4699      	mov	r9, r3
    1cea:	46a2      	mov	sl, r4
    1cec:	46ab      	mov	fp, r5
    1cee:	bdf0      	pop	{r4, r5, r6, r7, pc}
    1cf0:	1c31      	adds	r1, r6, #0
    1cf2:	2301      	movs	r3, #1
    1cf4:	4301      	orrs	r1, r0
    1cf6:	d1f4      	bne.n	1ce2 <__eqdf2+0x3a>
    1cf8:	4b0c      	ldr	r3, [pc, #48]	; (1d2c <__eqdf2+0x84>)
    1cfa:	429c      	cmp	r4, r3
    1cfc:	d1ee      	bne.n	1cdc <__eqdf2+0x34>
    1cfe:	433a      	orrs	r2, r7
    1d00:	2301      	movs	r3, #1
    1d02:	2a00      	cmp	r2, #0
    1d04:	d1ed      	bne.n	1ce2 <__eqdf2+0x3a>
    1d06:	2301      	movs	r3, #1
    1d08:	42a5      	cmp	r5, r4
    1d0a:	d1ea      	bne.n	1ce2 <__eqdf2+0x3a>
    1d0c:	42be      	cmp	r6, r7
    1d0e:	d1e8      	bne.n	1ce2 <__eqdf2+0x3a>
    1d10:	45c4      	cmp	ip, r8
    1d12:	d1e6      	bne.n	1ce2 <__eqdf2+0x3a>
    1d14:	45cb      	cmp	fp, r9
    1d16:	d006      	beq.n	1d26 <__eqdf2+0x7e>
    1d18:	2d00      	cmp	r5, #0
    1d1a:	d1e2      	bne.n	1ce2 <__eqdf2+0x3a>
    1d1c:	4330      	orrs	r0, r6
    1d1e:	1c03      	adds	r3, r0, #0
    1d20:	1e58      	subs	r0, r3, #1
    1d22:	4183      	sbcs	r3, r0
    1d24:	e7dd      	b.n	1ce2 <__eqdf2+0x3a>
    1d26:	2300      	movs	r3, #0
    1d28:	e7db      	b.n	1ce2 <__eqdf2+0x3a>
    1d2a:	46c0      	nop			; (mov r8, r8)
    1d2c:	000007ff 	.word	0x000007ff

00001d30 <__gedf2>:
    1d30:	b5f0      	push	{r4, r5, r6, r7, lr}
    1d32:	4657      	mov	r7, sl
    1d34:	4645      	mov	r5, r8
    1d36:	464e      	mov	r6, r9
    1d38:	b4e0      	push	{r5, r6, r7}
    1d3a:	030f      	lsls	r7, r1, #12
    1d3c:	004e      	lsls	r6, r1, #1
    1d3e:	0fc9      	lsrs	r1, r1, #31
    1d40:	468a      	mov	sl, r1
    1d42:	4932      	ldr	r1, [pc, #200]	; (1e0c <__gedf2+0xdc>)
    1d44:	031d      	lsls	r5, r3, #12
    1d46:	005c      	lsls	r4, r3, #1
    1d48:	4684      	mov	ip, r0
    1d4a:	0b3f      	lsrs	r7, r7, #12
    1d4c:	0d76      	lsrs	r6, r6, #21
    1d4e:	4690      	mov	r8, r2
    1d50:	0b2d      	lsrs	r5, r5, #12
    1d52:	0d64      	lsrs	r4, r4, #21
    1d54:	0fdb      	lsrs	r3, r3, #31
    1d56:	428e      	cmp	r6, r1
    1d58:	d00f      	beq.n	1d7a <__gedf2+0x4a>
    1d5a:	428c      	cmp	r4, r1
    1d5c:	d039      	beq.n	1dd2 <__gedf2+0xa2>
    1d5e:	2e00      	cmp	r6, #0
    1d60:	d110      	bne.n	1d84 <__gedf2+0x54>
    1d62:	4338      	orrs	r0, r7
    1d64:	4241      	negs	r1, r0
    1d66:	4141      	adcs	r1, r0
    1d68:	4689      	mov	r9, r1
    1d6a:	2c00      	cmp	r4, #0
    1d6c:	d127      	bne.n	1dbe <__gedf2+0x8e>
    1d6e:	432a      	orrs	r2, r5
    1d70:	d125      	bne.n	1dbe <__gedf2+0x8e>
    1d72:	2000      	movs	r0, #0
    1d74:	2900      	cmp	r1, #0
    1d76:	d10e      	bne.n	1d96 <__gedf2+0x66>
    1d78:	e008      	b.n	1d8c <__gedf2+0x5c>
    1d7a:	1c39      	adds	r1, r7, #0
    1d7c:	4301      	orrs	r1, r0
    1d7e:	d12e      	bne.n	1dde <__gedf2+0xae>
    1d80:	42b4      	cmp	r4, r6
    1d82:	d026      	beq.n	1dd2 <__gedf2+0xa2>
    1d84:	2c00      	cmp	r4, #0
    1d86:	d00b      	beq.n	1da0 <__gedf2+0x70>
    1d88:	459a      	cmp	sl, r3
    1d8a:	d00d      	beq.n	1da8 <__gedf2+0x78>
    1d8c:	4653      	mov	r3, sl
    1d8e:	4259      	negs	r1, r3
    1d90:	2301      	movs	r3, #1
    1d92:	4319      	orrs	r1, r3
    1d94:	1c08      	adds	r0, r1, #0
    1d96:	bc1c      	pop	{r2, r3, r4}
    1d98:	4690      	mov	r8, r2
    1d9a:	4699      	mov	r9, r3
    1d9c:	46a2      	mov	sl, r4
    1d9e:	bdf0      	pop	{r4, r5, r6, r7, pc}
    1da0:	432a      	orrs	r2, r5
    1da2:	d0f3      	beq.n	1d8c <__gedf2+0x5c>
    1da4:	459a      	cmp	sl, r3
    1da6:	d1f1      	bne.n	1d8c <__gedf2+0x5c>
    1da8:	42a6      	cmp	r6, r4
    1daa:	dcef      	bgt.n	1d8c <__gedf2+0x5c>
    1dac:	da1a      	bge.n	1de4 <__gedf2+0xb4>
    1dae:	4650      	mov	r0, sl
    1db0:	4241      	negs	r1, r0
    1db2:	4148      	adcs	r0, r1
    1db4:	2301      	movs	r3, #1
    1db6:	4241      	negs	r1, r0
    1db8:	4319      	orrs	r1, r3
    1dba:	1c08      	adds	r0, r1, #0
    1dbc:	e7eb      	b.n	1d96 <__gedf2+0x66>
    1dbe:	464a      	mov	r2, r9
    1dc0:	2a00      	cmp	r2, #0
    1dc2:	d0e1      	beq.n	1d88 <__gedf2+0x58>
    1dc4:	4258      	negs	r0, r3
    1dc6:	4158      	adcs	r0, r3
    1dc8:	2201      	movs	r2, #1
    1dca:	4241      	negs	r1, r0
    1dcc:	4311      	orrs	r1, r2
    1dce:	1c08      	adds	r0, r1, #0
    1dd0:	e7e1      	b.n	1d96 <__gedf2+0x66>
    1dd2:	1c29      	adds	r1, r5, #0
    1dd4:	4311      	orrs	r1, r2
    1dd6:	d102      	bne.n	1dde <__gedf2+0xae>
    1dd8:	2e00      	cmp	r6, #0
    1dda:	d0c2      	beq.n	1d62 <__gedf2+0x32>
    1ddc:	e7d4      	b.n	1d88 <__gedf2+0x58>
    1dde:	2002      	movs	r0, #2
    1de0:	4240      	negs	r0, r0
    1de2:	e7d8      	b.n	1d96 <__gedf2+0x66>
    1de4:	42af      	cmp	r7, r5
    1de6:	d8d1      	bhi.n	1d8c <__gedf2+0x5c>
    1de8:	d009      	beq.n	1dfe <__gedf2+0xce>
    1dea:	2000      	movs	r0, #0
    1dec:	42af      	cmp	r7, r5
    1dee:	d2d2      	bcs.n	1d96 <__gedf2+0x66>
    1df0:	4650      	mov	r0, sl
    1df2:	4241      	negs	r1, r0
    1df4:	4148      	adcs	r0, r1
    1df6:	2301      	movs	r3, #1
    1df8:	4240      	negs	r0, r0
    1dfa:	4318      	orrs	r0, r3
    1dfc:	e7cb      	b.n	1d96 <__gedf2+0x66>
    1dfe:	45c4      	cmp	ip, r8
    1e00:	d8c4      	bhi.n	1d8c <__gedf2+0x5c>
    1e02:	2000      	movs	r0, #0
    1e04:	45c4      	cmp	ip, r8
    1e06:	d3f3      	bcc.n	1df0 <__gedf2+0xc0>
    1e08:	e7c5      	b.n	1d96 <__gedf2+0x66>
    1e0a:	46c0      	nop			; (mov r8, r8)
    1e0c:	000007ff 	.word	0x000007ff

00001e10 <__ledf2>:
    1e10:	b5f0      	push	{r4, r5, r6, r7, lr}
    1e12:	465f      	mov	r7, fp
    1e14:	464d      	mov	r5, r9
    1e16:	4644      	mov	r4, r8
    1e18:	4656      	mov	r6, sl
    1e1a:	4680      	mov	r8, r0
    1e1c:	b4f0      	push	{r4, r5, r6, r7}
    1e1e:	1c06      	adds	r6, r0, #0
    1e20:	0308      	lsls	r0, r1, #12
    1e22:	0b00      	lsrs	r0, r0, #12
    1e24:	4684      	mov	ip, r0
    1e26:	482c      	ldr	r0, [pc, #176]	; (1ed8 <__ledf2+0xc8>)
    1e28:	004c      	lsls	r4, r1, #1
    1e2a:	031f      	lsls	r7, r3, #12
    1e2c:	005d      	lsls	r5, r3, #1
    1e2e:	0fc9      	lsrs	r1, r1, #31
    1e30:	0d64      	lsrs	r4, r4, #21
    1e32:	468b      	mov	fp, r1
    1e34:	4691      	mov	r9, r2
    1e36:	0b3f      	lsrs	r7, r7, #12
    1e38:	0d6d      	lsrs	r5, r5, #21
    1e3a:	0fdb      	lsrs	r3, r3, #31
    1e3c:	4284      	cmp	r4, r0
    1e3e:	d012      	beq.n	1e66 <__ledf2+0x56>
    1e40:	4285      	cmp	r5, r0
    1e42:	d025      	beq.n	1e90 <__ledf2+0x80>
    1e44:	2c00      	cmp	r4, #0
    1e46:	d114      	bne.n	1e72 <__ledf2+0x62>
    1e48:	4661      	mov	r1, ip
    1e4a:	430e      	orrs	r6, r1
    1e4c:	4270      	negs	r0, r6
    1e4e:	4146      	adcs	r6, r0
    1e50:	2d00      	cmp	r5, #0
    1e52:	d035      	beq.n	1ec0 <__ledf2+0xb0>
    1e54:	2e00      	cmp	r6, #0
    1e56:	d021      	beq.n	1e9c <__ledf2+0x8c>
    1e58:	4258      	negs	r0, r3
    1e5a:	4158      	adcs	r0, r3
    1e5c:	2101      	movs	r1, #1
    1e5e:	4243      	negs	r3, r0
    1e60:	430b      	orrs	r3, r1
    1e62:	1c18      	adds	r0, r3, #0
    1e64:	e00e      	b.n	1e84 <__ledf2+0x74>
    1e66:	4661      	mov	r1, ip
    1e68:	2002      	movs	r0, #2
    1e6a:	4331      	orrs	r1, r6
    1e6c:	d10a      	bne.n	1e84 <__ledf2+0x74>
    1e6e:	42a5      	cmp	r5, r4
    1e70:	d00e      	beq.n	1e90 <__ledf2+0x80>
    1e72:	2d00      	cmp	r5, #0
    1e74:	d112      	bne.n	1e9c <__ledf2+0x8c>
    1e76:	433a      	orrs	r2, r7
    1e78:	d110      	bne.n	1e9c <__ledf2+0x8c>
    1e7a:	465b      	mov	r3, fp
    1e7c:	4259      	negs	r1, r3
    1e7e:	2301      	movs	r3, #1
    1e80:	4319      	orrs	r1, r3
    1e82:	1c08      	adds	r0, r1, #0
    1e84:	bc3c      	pop	{r2, r3, r4, r5}
    1e86:	4690      	mov	r8, r2
    1e88:	4699      	mov	r9, r3
    1e8a:	46a2      	mov	sl, r4
    1e8c:	46ab      	mov	fp, r5
    1e8e:	bdf0      	pop	{r4, r5, r6, r7, pc}
    1e90:	1c39      	adds	r1, r7, #0
    1e92:	2002      	movs	r0, #2
    1e94:	4311      	orrs	r1, r2
    1e96:	d1f5      	bne.n	1e84 <__ledf2+0x74>
    1e98:	2c00      	cmp	r4, #0
    1e9a:	d0d5      	beq.n	1e48 <__ledf2+0x38>
    1e9c:	459b      	cmp	fp, r3
    1e9e:	d1ec      	bne.n	1e7a <__ledf2+0x6a>
    1ea0:	42ac      	cmp	r4, r5
    1ea2:	dcea      	bgt.n	1e7a <__ledf2+0x6a>
    1ea4:	db05      	blt.n	1eb2 <__ledf2+0xa2>
    1ea6:	45bc      	cmp	ip, r7
    1ea8:	d8e7      	bhi.n	1e7a <__ledf2+0x6a>
    1eaa:	d00f      	beq.n	1ecc <__ledf2+0xbc>
    1eac:	2000      	movs	r0, #0
    1eae:	45bc      	cmp	ip, r7
    1eb0:	d2e8      	bcs.n	1e84 <__ledf2+0x74>
    1eb2:	4658      	mov	r0, fp
    1eb4:	4241      	negs	r1, r0
    1eb6:	4148      	adcs	r0, r1
    1eb8:	4241      	negs	r1, r0
    1eba:	2001      	movs	r0, #1
    1ebc:	4308      	orrs	r0, r1
    1ebe:	e7e1      	b.n	1e84 <__ledf2+0x74>
    1ec0:	433a      	orrs	r2, r7
    1ec2:	d1c7      	bne.n	1e54 <__ledf2+0x44>
    1ec4:	2000      	movs	r0, #0
    1ec6:	2e00      	cmp	r6, #0
    1ec8:	d1dc      	bne.n	1e84 <__ledf2+0x74>
    1eca:	e7d6      	b.n	1e7a <__ledf2+0x6a>
    1ecc:	45c8      	cmp	r8, r9
    1ece:	d8d4      	bhi.n	1e7a <__ledf2+0x6a>
    1ed0:	2000      	movs	r0, #0
    1ed2:	45c8      	cmp	r8, r9
    1ed4:	d3ed      	bcc.n	1eb2 <__ledf2+0xa2>
    1ed6:	e7d5      	b.n	1e84 <__ledf2+0x74>
    1ed8:	000007ff 	.word	0x000007ff

00001edc <__aeabi_dmul>:
    1edc:	b5f0      	push	{r4, r5, r6, r7, lr}
    1ede:	465f      	mov	r7, fp
    1ee0:	4656      	mov	r6, sl
    1ee2:	464d      	mov	r5, r9
    1ee4:	4644      	mov	r4, r8
    1ee6:	b4f0      	push	{r4, r5, r6, r7}
    1ee8:	1c05      	adds	r5, r0, #0
    1eea:	1c06      	adds	r6, r0, #0
    1eec:	0308      	lsls	r0, r1, #12
    1eee:	b087      	sub	sp, #28
    1ef0:	4699      	mov	r9, r3
    1ef2:	004f      	lsls	r7, r1, #1
    1ef4:	0b03      	lsrs	r3, r0, #12
    1ef6:	0fcc      	lsrs	r4, r1, #31
    1ef8:	4692      	mov	sl, r2
    1efa:	469b      	mov	fp, r3
    1efc:	0d7f      	lsrs	r7, r7, #21
    1efe:	9401      	str	r4, [sp, #4]
    1f00:	d067      	beq.n	1fd2 <__aeabi_dmul+0xf6>
    1f02:	4b6c      	ldr	r3, [pc, #432]	; (20b4 <__aeabi_dmul+0x1d8>)
    1f04:	429f      	cmp	r7, r3
    1f06:	d036      	beq.n	1f76 <__aeabi_dmul+0x9a>
    1f08:	2080      	movs	r0, #128	; 0x80
    1f0a:	465b      	mov	r3, fp
    1f0c:	0340      	lsls	r0, r0, #13
    1f0e:	4318      	orrs	r0, r3
    1f10:	00c0      	lsls	r0, r0, #3
    1f12:	0f6b      	lsrs	r3, r5, #29
    1f14:	4318      	orrs	r0, r3
    1f16:	4b68      	ldr	r3, [pc, #416]	; (20b8 <__aeabi_dmul+0x1dc>)
    1f18:	4683      	mov	fp, r0
    1f1a:	469c      	mov	ip, r3
    1f1c:	2300      	movs	r3, #0
    1f1e:	4698      	mov	r8, r3
    1f20:	00ee      	lsls	r6, r5, #3
    1f22:	4467      	add	r7, ip
    1f24:	9300      	str	r3, [sp, #0]
    1f26:	464b      	mov	r3, r9
    1f28:	4649      	mov	r1, r9
    1f2a:	031d      	lsls	r5, r3, #12
    1f2c:	0fc9      	lsrs	r1, r1, #31
    1f2e:	005b      	lsls	r3, r3, #1
    1f30:	4652      	mov	r2, sl
    1f32:	0b2d      	lsrs	r5, r5, #12
    1f34:	0d5b      	lsrs	r3, r3, #21
    1f36:	4689      	mov	r9, r1
    1f38:	d100      	bne.n	1f3c <__aeabi_dmul+0x60>
    1f3a:	e06e      	b.n	201a <__aeabi_dmul+0x13e>
    1f3c:	495d      	ldr	r1, [pc, #372]	; (20b4 <__aeabi_dmul+0x1d8>)
    1f3e:	428b      	cmp	r3, r1
    1f40:	d064      	beq.n	200c <__aeabi_dmul+0x130>
    1f42:	2080      	movs	r0, #128	; 0x80
    1f44:	495c      	ldr	r1, [pc, #368]	; (20b8 <__aeabi_dmul+0x1dc>)
    1f46:	0340      	lsls	r0, r0, #13
    1f48:	468c      	mov	ip, r1
    1f4a:	2100      	movs	r1, #0
    1f4c:	4305      	orrs	r5, r0
    1f4e:	00ed      	lsls	r5, r5, #3
    1f50:	0f50      	lsrs	r0, r2, #29
    1f52:	4305      	orrs	r5, r0
    1f54:	00d2      	lsls	r2, r2, #3
    1f56:	4463      	add	r3, ip
    1f58:	4648      	mov	r0, r9
    1f5a:	18ff      	adds	r7, r7, r3
    1f5c:	1c7b      	adds	r3, r7, #1
    1f5e:	469a      	mov	sl, r3
    1f60:	9b00      	ldr	r3, [sp, #0]
    1f62:	4060      	eors	r0, r4
    1f64:	9002      	str	r0, [sp, #8]
    1f66:	430b      	orrs	r3, r1
    1f68:	2b0f      	cmp	r3, #15
    1f6a:	d900      	bls.n	1f6e <__aeabi_dmul+0x92>
    1f6c:	e0ac      	b.n	20c8 <__aeabi_dmul+0x1ec>
    1f6e:	4853      	ldr	r0, [pc, #332]	; (20bc <__aeabi_dmul+0x1e0>)
    1f70:	009b      	lsls	r3, r3, #2
    1f72:	58c3      	ldr	r3, [r0, r3]
    1f74:	469f      	mov	pc, r3
    1f76:	465b      	mov	r3, fp
    1f78:	431d      	orrs	r5, r3
    1f7a:	d000      	beq.n	1f7e <__aeabi_dmul+0xa2>
    1f7c:	e082      	b.n	2084 <__aeabi_dmul+0x1a8>
    1f7e:	2308      	movs	r3, #8
    1f80:	9300      	str	r3, [sp, #0]
    1f82:	2300      	movs	r3, #0
    1f84:	469b      	mov	fp, r3
    1f86:	3302      	adds	r3, #2
    1f88:	2600      	movs	r6, #0
    1f8a:	4698      	mov	r8, r3
    1f8c:	e7cb      	b.n	1f26 <__aeabi_dmul+0x4a>
    1f8e:	9b02      	ldr	r3, [sp, #8]
    1f90:	9301      	str	r3, [sp, #4]
    1f92:	4643      	mov	r3, r8
    1f94:	2b02      	cmp	r3, #2
    1f96:	d159      	bne.n	204c <__aeabi_dmul+0x170>
    1f98:	2401      	movs	r4, #1
    1f9a:	2500      	movs	r5, #0
    1f9c:	2600      	movs	r6, #0
    1f9e:	9b01      	ldr	r3, [sp, #4]
    1fa0:	401c      	ands	r4, r3
    1fa2:	4b44      	ldr	r3, [pc, #272]	; (20b4 <__aeabi_dmul+0x1d8>)
    1fa4:	2100      	movs	r1, #0
    1fa6:	032d      	lsls	r5, r5, #12
    1fa8:	0d0a      	lsrs	r2, r1, #20
    1faa:	0512      	lsls	r2, r2, #20
    1fac:	0b2d      	lsrs	r5, r5, #12
    1fae:	4315      	orrs	r5, r2
    1fb0:	4a43      	ldr	r2, [pc, #268]	; (20c0 <__aeabi_dmul+0x1e4>)
    1fb2:	051b      	lsls	r3, r3, #20
    1fb4:	4015      	ands	r5, r2
    1fb6:	431d      	orrs	r5, r3
    1fb8:	006d      	lsls	r5, r5, #1
    1fba:	07e4      	lsls	r4, r4, #31
    1fbc:	086d      	lsrs	r5, r5, #1
    1fbe:	4325      	orrs	r5, r4
    1fc0:	1c30      	adds	r0, r6, #0
    1fc2:	1c29      	adds	r1, r5, #0
    1fc4:	b007      	add	sp, #28
    1fc6:	bc3c      	pop	{r2, r3, r4, r5}
    1fc8:	4690      	mov	r8, r2
    1fca:	4699      	mov	r9, r3
    1fcc:	46a2      	mov	sl, r4
    1fce:	46ab      	mov	fp, r5
    1fd0:	bdf0      	pop	{r4, r5, r6, r7, pc}
    1fd2:	432b      	orrs	r3, r5
    1fd4:	d04e      	beq.n	2074 <__aeabi_dmul+0x198>
    1fd6:	465b      	mov	r3, fp
    1fd8:	2b00      	cmp	r3, #0
    1fda:	d100      	bne.n	1fde <__aeabi_dmul+0x102>
    1fdc:	e185      	b.n	22ea <__aeabi_dmul+0x40e>
    1fde:	4658      	mov	r0, fp
    1fe0:	f000 fe02 	bl	2be8 <__clzsi2>
    1fe4:	1c02      	adds	r2, r0, #0
    1fe6:	2328      	movs	r3, #40	; 0x28
    1fe8:	1c29      	adds	r1, r5, #0
    1fea:	1a9b      	subs	r3, r3, r2
    1fec:	1c16      	adds	r6, r2, #0
    1fee:	4658      	mov	r0, fp
    1ff0:	40d9      	lsrs	r1, r3
    1ff2:	3e08      	subs	r6, #8
    1ff4:	40b0      	lsls	r0, r6
    1ff6:	1c0b      	adds	r3, r1, #0
    1ff8:	40b5      	lsls	r5, r6
    1ffa:	4303      	orrs	r3, r0
    1ffc:	469b      	mov	fp, r3
    1ffe:	1c2e      	adds	r6, r5, #0
    2000:	2300      	movs	r3, #0
    2002:	4f30      	ldr	r7, [pc, #192]	; (20c4 <__aeabi_dmul+0x1e8>)
    2004:	9300      	str	r3, [sp, #0]
    2006:	1abf      	subs	r7, r7, r2
    2008:	4698      	mov	r8, r3
    200a:	e78c      	b.n	1f26 <__aeabi_dmul+0x4a>
    200c:	4651      	mov	r1, sl
    200e:	4329      	orrs	r1, r5
    2010:	d12e      	bne.n	2070 <__aeabi_dmul+0x194>
    2012:	2500      	movs	r5, #0
    2014:	2200      	movs	r2, #0
    2016:	2102      	movs	r1, #2
    2018:	e79e      	b.n	1f58 <__aeabi_dmul+0x7c>
    201a:	4651      	mov	r1, sl
    201c:	4329      	orrs	r1, r5
    201e:	d023      	beq.n	2068 <__aeabi_dmul+0x18c>
    2020:	2d00      	cmp	r5, #0
    2022:	d100      	bne.n	2026 <__aeabi_dmul+0x14a>
    2024:	e154      	b.n	22d0 <__aeabi_dmul+0x3f4>
    2026:	1c28      	adds	r0, r5, #0
    2028:	f000 fdde 	bl	2be8 <__clzsi2>
    202c:	1c03      	adds	r3, r0, #0
    202e:	2128      	movs	r1, #40	; 0x28
    2030:	4650      	mov	r0, sl
    2032:	1ac9      	subs	r1, r1, r3
    2034:	1c1a      	adds	r2, r3, #0
    2036:	40c8      	lsrs	r0, r1
    2038:	4651      	mov	r1, sl
    203a:	3a08      	subs	r2, #8
    203c:	4091      	lsls	r1, r2
    203e:	4095      	lsls	r5, r2
    2040:	1c0a      	adds	r2, r1, #0
    2042:	4305      	orrs	r5, r0
    2044:	481f      	ldr	r0, [pc, #124]	; (20c4 <__aeabi_dmul+0x1e8>)
    2046:	2100      	movs	r1, #0
    2048:	1ac3      	subs	r3, r0, r3
    204a:	e785      	b.n	1f58 <__aeabi_dmul+0x7c>
    204c:	2b03      	cmp	r3, #3
    204e:	d100      	bne.n	2052 <__aeabi_dmul+0x176>
    2050:	e1c2      	b.n	23d8 <__aeabi_dmul+0x4fc>
    2052:	2b01      	cmp	r3, #1
    2054:	d000      	beq.n	2058 <__aeabi_dmul+0x17c>
    2056:	e16d      	b.n	2334 <__aeabi_dmul+0x458>
    2058:	4644      	mov	r4, r8
    205a:	9b01      	ldr	r3, [sp, #4]
    205c:	2500      	movs	r5, #0
    205e:	401c      	ands	r4, r3
    2060:	b2e4      	uxtb	r4, r4
    2062:	2300      	movs	r3, #0
    2064:	2600      	movs	r6, #0
    2066:	e79d      	b.n	1fa4 <__aeabi_dmul+0xc8>
    2068:	2500      	movs	r5, #0
    206a:	2200      	movs	r2, #0
    206c:	2101      	movs	r1, #1
    206e:	e773      	b.n	1f58 <__aeabi_dmul+0x7c>
    2070:	2103      	movs	r1, #3
    2072:	e771      	b.n	1f58 <__aeabi_dmul+0x7c>
    2074:	2304      	movs	r3, #4
    2076:	9300      	str	r3, [sp, #0]
    2078:	2300      	movs	r3, #0
    207a:	469b      	mov	fp, r3
    207c:	3301      	adds	r3, #1
    207e:	2600      	movs	r6, #0
    2080:	4698      	mov	r8, r3
    2082:	e750      	b.n	1f26 <__aeabi_dmul+0x4a>
    2084:	230c      	movs	r3, #12
    2086:	9300      	str	r3, [sp, #0]
    2088:	3b09      	subs	r3, #9
    208a:	4698      	mov	r8, r3
    208c:	e74b      	b.n	1f26 <__aeabi_dmul+0x4a>
    208e:	2580      	movs	r5, #128	; 0x80
    2090:	2400      	movs	r4, #0
    2092:	032d      	lsls	r5, r5, #12
    2094:	2600      	movs	r6, #0
    2096:	4b07      	ldr	r3, [pc, #28]	; (20b4 <__aeabi_dmul+0x1d8>)
    2098:	e784      	b.n	1fa4 <__aeabi_dmul+0xc8>
    209a:	464b      	mov	r3, r9
    209c:	46ab      	mov	fp, r5
    209e:	1c16      	adds	r6, r2, #0
    20a0:	9301      	str	r3, [sp, #4]
    20a2:	4688      	mov	r8, r1
    20a4:	e775      	b.n	1f92 <__aeabi_dmul+0xb6>
    20a6:	9b02      	ldr	r3, [sp, #8]
    20a8:	46ab      	mov	fp, r5
    20aa:	1c16      	adds	r6, r2, #0
    20ac:	9301      	str	r3, [sp, #4]
    20ae:	4688      	mov	r8, r1
    20b0:	e76f      	b.n	1f92 <__aeabi_dmul+0xb6>
    20b2:	46c0      	nop			; (mov r8, r8)
    20b4:	000007ff 	.word	0x000007ff
    20b8:	fffffc01 	.word	0xfffffc01
    20bc:	00002e00 	.word	0x00002e00
    20c0:	800fffff 	.word	0x800fffff
    20c4:	fffffc0d 	.word	0xfffffc0d
    20c8:	0c33      	lsrs	r3, r6, #16
    20ca:	0436      	lsls	r6, r6, #16
    20cc:	0c36      	lsrs	r6, r6, #16
    20ce:	469c      	mov	ip, r3
    20d0:	1c33      	adds	r3, r6, #0
    20d2:	0c14      	lsrs	r4, r2, #16
    20d4:	0412      	lsls	r2, r2, #16
    20d6:	0c12      	lsrs	r2, r2, #16
    20d8:	4353      	muls	r3, r2
    20da:	4698      	mov	r8, r3
    20dc:	4663      	mov	r3, ip
    20de:	4353      	muls	r3, r2
    20e0:	4699      	mov	r9, r3
    20e2:	4663      	mov	r3, ip
    20e4:	4363      	muls	r3, r4
    20e6:	9301      	str	r3, [sp, #4]
    20e8:	1c33      	adds	r3, r6, #0
    20ea:	4641      	mov	r1, r8
    20ec:	4363      	muls	r3, r4
    20ee:	0c09      	lsrs	r1, r1, #16
    20f0:	444b      	add	r3, r9
    20f2:	185b      	adds	r3, r3, r1
    20f4:	4599      	cmp	r9, r3
    20f6:	d905      	bls.n	2104 <__aeabi_dmul+0x228>
    20f8:	2080      	movs	r0, #128	; 0x80
    20fa:	0240      	lsls	r0, r0, #9
    20fc:	4681      	mov	r9, r0
    20fe:	9901      	ldr	r1, [sp, #4]
    2100:	4449      	add	r1, r9
    2102:	9101      	str	r1, [sp, #4]
    2104:	0c19      	lsrs	r1, r3, #16
    2106:	9103      	str	r1, [sp, #12]
    2108:	4641      	mov	r1, r8
    210a:	0409      	lsls	r1, r1, #16
    210c:	0c09      	lsrs	r1, r1, #16
    210e:	041b      	lsls	r3, r3, #16
    2110:	185b      	adds	r3, r3, r1
    2112:	9304      	str	r3, [sp, #16]
    2114:	0c2b      	lsrs	r3, r5, #16
    2116:	4698      	mov	r8, r3
    2118:	1c33      	adds	r3, r6, #0
    211a:	042d      	lsls	r5, r5, #16
    211c:	0c29      	lsrs	r1, r5, #16
    211e:	434b      	muls	r3, r1
    2120:	4660      	mov	r0, ip
    2122:	9300      	str	r3, [sp, #0]
    2124:	4643      	mov	r3, r8
    2126:	4665      	mov	r5, ip
    2128:	4358      	muls	r0, r3
    212a:	435e      	muls	r6, r3
    212c:	9b00      	ldr	r3, [sp, #0]
    212e:	434d      	muls	r5, r1
    2130:	0c1b      	lsrs	r3, r3, #16
    2132:	4699      	mov	r9, r3
    2134:	19ae      	adds	r6, r5, r6
    2136:	444e      	add	r6, r9
    2138:	4684      	mov	ip, r0
    213a:	42b5      	cmp	r5, r6
    213c:	d903      	bls.n	2146 <__aeabi_dmul+0x26a>
    213e:	2380      	movs	r3, #128	; 0x80
    2140:	025b      	lsls	r3, r3, #9
    2142:	4699      	mov	r9, r3
    2144:	44cc      	add	ip, r9
    2146:	0c35      	lsrs	r5, r6, #16
    2148:	1c2b      	adds	r3, r5, #0
    214a:	9803      	ldr	r0, [sp, #12]
    214c:	4463      	add	r3, ip
    214e:	4684      	mov	ip, r0
    2150:	9305      	str	r3, [sp, #20]
    2152:	9b00      	ldr	r3, [sp, #0]
    2154:	0436      	lsls	r6, r6, #16
    2156:	041b      	lsls	r3, r3, #16
    2158:	0c1b      	lsrs	r3, r3, #16
    215a:	18f3      	adds	r3, r6, r3
    215c:	449c      	add	ip, r3
    215e:	4660      	mov	r0, ip
    2160:	9003      	str	r0, [sp, #12]
    2162:	4658      	mov	r0, fp
    2164:	0405      	lsls	r5, r0, #16
    2166:	0c06      	lsrs	r6, r0, #16
    2168:	0c28      	lsrs	r0, r5, #16
    216a:	4684      	mov	ip, r0
    216c:	4350      	muls	r0, r2
    216e:	1c35      	adds	r5, r6, #0
    2170:	4681      	mov	r9, r0
    2172:	4660      	mov	r0, ip
    2174:	4365      	muls	r5, r4
    2176:	4344      	muls	r4, r0
    2178:	4648      	mov	r0, r9
    217a:	0c00      	lsrs	r0, r0, #16
    217c:	4683      	mov	fp, r0
    217e:	4372      	muls	r2, r6
    2180:	1914      	adds	r4, r2, r4
    2182:	445c      	add	r4, fp
    2184:	42a2      	cmp	r2, r4
    2186:	d903      	bls.n	2190 <__aeabi_dmul+0x2b4>
    2188:	2280      	movs	r2, #128	; 0x80
    218a:	0252      	lsls	r2, r2, #9
    218c:	4693      	mov	fp, r2
    218e:	445d      	add	r5, fp
    2190:	0c22      	lsrs	r2, r4, #16
    2192:	18ad      	adds	r5, r5, r2
    2194:	464a      	mov	r2, r9
    2196:	0412      	lsls	r2, r2, #16
    2198:	0c12      	lsrs	r2, r2, #16
    219a:	0424      	lsls	r4, r4, #16
    219c:	4640      	mov	r0, r8
    219e:	18a4      	adds	r4, r4, r2
    21a0:	4662      	mov	r2, ip
    21a2:	434a      	muls	r2, r1
    21a4:	4371      	muls	r1, r6
    21a6:	4346      	muls	r6, r0
    21a8:	4660      	mov	r0, ip
    21aa:	9600      	str	r6, [sp, #0]
    21ac:	4646      	mov	r6, r8
    21ae:	4370      	muls	r0, r6
    21b0:	4680      	mov	r8, r0
    21b2:	0c10      	lsrs	r0, r2, #16
    21b4:	4684      	mov	ip, r0
    21b6:	4488      	add	r8, r1
    21b8:	44e0      	add	r8, ip
    21ba:	4541      	cmp	r1, r8
    21bc:	d905      	bls.n	21ca <__aeabi_dmul+0x2ee>
    21be:	2180      	movs	r1, #128	; 0x80
    21c0:	0249      	lsls	r1, r1, #9
    21c2:	468c      	mov	ip, r1
    21c4:	9900      	ldr	r1, [sp, #0]
    21c6:	4461      	add	r1, ip
    21c8:	9100      	str	r1, [sp, #0]
    21ca:	9801      	ldr	r0, [sp, #4]
    21cc:	9903      	ldr	r1, [sp, #12]
    21ce:	4684      	mov	ip, r0
    21d0:	4461      	add	r1, ip
    21d2:	4299      	cmp	r1, r3
    21d4:	419b      	sbcs	r3, r3
    21d6:	425b      	negs	r3, r3
    21d8:	4699      	mov	r9, r3
    21da:	9805      	ldr	r0, [sp, #20]
    21dc:	4643      	mov	r3, r8
    21de:	4684      	mov	ip, r0
    21e0:	0412      	lsls	r2, r2, #16
    21e2:	0c12      	lsrs	r2, r2, #16
    21e4:	041b      	lsls	r3, r3, #16
    21e6:	189b      	adds	r3, r3, r2
    21e8:	4463      	add	r3, ip
    21ea:	469c      	mov	ip, r3
    21ec:	46ab      	mov	fp, r5
    21ee:	4283      	cmp	r3, r0
    21f0:	419b      	sbcs	r3, r3
    21f2:	4640      	mov	r0, r8
    21f4:	190a      	adds	r2, r1, r4
    21f6:	44cc      	add	ip, r9
    21f8:	42a2      	cmp	r2, r4
    21fa:	4189      	sbcs	r1, r1
    21fc:	44e3      	add	fp, ip
    21fe:	45cc      	cmp	ip, r9
    2200:	41b6      	sbcs	r6, r6
    2202:	465c      	mov	r4, fp
    2204:	0c00      	lsrs	r0, r0, #16
    2206:	4680      	mov	r8, r0
    2208:	4249      	negs	r1, r1
    220a:	4276      	negs	r6, r6
    220c:	425b      	negs	r3, r3
    220e:	1864      	adds	r4, r4, r1
    2210:	4333      	orrs	r3, r6
    2212:	4498      	add	r8, r3
    2214:	428c      	cmp	r4, r1
    2216:	4189      	sbcs	r1, r1
    2218:	45ab      	cmp	fp, r5
    221a:	419b      	sbcs	r3, r3
    221c:	4249      	negs	r1, r1
    221e:	425b      	negs	r3, r3
    2220:	4319      	orrs	r1, r3
    2222:	1c0d      	adds	r5, r1, #0
    2224:	9b00      	ldr	r3, [sp, #0]
    2226:	4445      	add	r5, r8
    2228:	18ee      	adds	r6, r5, r3
    222a:	0276      	lsls	r6, r6, #9
    222c:	0de5      	lsrs	r5, r4, #23
    222e:	432e      	orrs	r6, r5
    2230:	46b3      	mov	fp, r6
    2232:	9b04      	ldr	r3, [sp, #16]
    2234:	0256      	lsls	r6, r2, #9
    2236:	431e      	orrs	r6, r3
    2238:	1e73      	subs	r3, r6, #1
    223a:	419e      	sbcs	r6, r3
    223c:	465b      	mov	r3, fp
    223e:	0dd2      	lsrs	r2, r2, #23
    2240:	4332      	orrs	r2, r6
    2242:	0266      	lsls	r6, r4, #9
    2244:	4316      	orrs	r6, r2
    2246:	01db      	lsls	r3, r3, #7
    2248:	d50a      	bpl.n	2260 <__aeabi_dmul+0x384>
    224a:	2301      	movs	r3, #1
    224c:	4033      	ands	r3, r6
    224e:	0876      	lsrs	r6, r6, #1
    2250:	431e      	orrs	r6, r3
    2252:	465b      	mov	r3, fp
    2254:	07db      	lsls	r3, r3, #31
    2256:	431e      	orrs	r6, r3
    2258:	465b      	mov	r3, fp
    225a:	085b      	lsrs	r3, r3, #1
    225c:	469b      	mov	fp, r3
    225e:	4657      	mov	r7, sl
    2260:	4b63      	ldr	r3, [pc, #396]	; (23f0 <__aeabi_dmul+0x514>)
    2262:	18fb      	adds	r3, r7, r3
    2264:	2b00      	cmp	r3, #0
    2266:	dd5a      	ble.n	231e <__aeabi_dmul+0x442>
    2268:	0772      	lsls	r2, r6, #29
    226a:	d009      	beq.n	2280 <__aeabi_dmul+0x3a4>
    226c:	220f      	movs	r2, #15
    226e:	4032      	ands	r2, r6
    2270:	2a04      	cmp	r2, #4
    2272:	d005      	beq.n	2280 <__aeabi_dmul+0x3a4>
    2274:	1d32      	adds	r2, r6, #4
    2276:	42b2      	cmp	r2, r6
    2278:	41b6      	sbcs	r6, r6
    227a:	4276      	negs	r6, r6
    227c:	44b3      	add	fp, r6
    227e:	1c16      	adds	r6, r2, #0
    2280:	465a      	mov	r2, fp
    2282:	01d2      	lsls	r2, r2, #7
    2284:	d506      	bpl.n	2294 <__aeabi_dmul+0x3b8>
    2286:	465a      	mov	r2, fp
    2288:	4b5a      	ldr	r3, [pc, #360]	; (23f4 <__aeabi_dmul+0x518>)
    228a:	401a      	ands	r2, r3
    228c:	2380      	movs	r3, #128	; 0x80
    228e:	4693      	mov	fp, r2
    2290:	00db      	lsls	r3, r3, #3
    2292:	18fb      	adds	r3, r7, r3
    2294:	4a58      	ldr	r2, [pc, #352]	; (23f8 <__aeabi_dmul+0x51c>)
    2296:	4293      	cmp	r3, r2
    2298:	dd34      	ble.n	2304 <__aeabi_dmul+0x428>
    229a:	2401      	movs	r4, #1
    229c:	9b02      	ldr	r3, [sp, #8]
    229e:	2500      	movs	r5, #0
    22a0:	401c      	ands	r4, r3
    22a2:	2600      	movs	r6, #0
    22a4:	4b55      	ldr	r3, [pc, #340]	; (23fc <__aeabi_dmul+0x520>)
    22a6:	e67d      	b.n	1fa4 <__aeabi_dmul+0xc8>
    22a8:	2080      	movs	r0, #128	; 0x80
    22aa:	465b      	mov	r3, fp
    22ac:	0300      	lsls	r0, r0, #12
    22ae:	4203      	tst	r3, r0
    22b0:	d008      	beq.n	22c4 <__aeabi_dmul+0x3e8>
    22b2:	4205      	tst	r5, r0
    22b4:	d106      	bne.n	22c4 <__aeabi_dmul+0x3e8>
    22b6:	4305      	orrs	r5, r0
    22b8:	032d      	lsls	r5, r5, #12
    22ba:	0b2d      	lsrs	r5, r5, #12
    22bc:	464c      	mov	r4, r9
    22be:	1c16      	adds	r6, r2, #0
    22c0:	4b4e      	ldr	r3, [pc, #312]	; (23fc <__aeabi_dmul+0x520>)
    22c2:	e66f      	b.n	1fa4 <__aeabi_dmul+0xc8>
    22c4:	465d      	mov	r5, fp
    22c6:	4305      	orrs	r5, r0
    22c8:	032d      	lsls	r5, r5, #12
    22ca:	0b2d      	lsrs	r5, r5, #12
    22cc:	4b4b      	ldr	r3, [pc, #300]	; (23fc <__aeabi_dmul+0x520>)
    22ce:	e669      	b.n	1fa4 <__aeabi_dmul+0xc8>
    22d0:	4650      	mov	r0, sl
    22d2:	f000 fc89 	bl	2be8 <__clzsi2>
    22d6:	1c03      	adds	r3, r0, #0
    22d8:	3320      	adds	r3, #32
    22da:	2b27      	cmp	r3, #39	; 0x27
    22dc:	dc00      	bgt.n	22e0 <__aeabi_dmul+0x404>
    22de:	e6a6      	b.n	202e <__aeabi_dmul+0x152>
    22e0:	4655      	mov	r5, sl
    22e2:	3808      	subs	r0, #8
    22e4:	4085      	lsls	r5, r0
    22e6:	2200      	movs	r2, #0
    22e8:	e6ac      	b.n	2044 <__aeabi_dmul+0x168>
    22ea:	1c28      	adds	r0, r5, #0
    22ec:	f000 fc7c 	bl	2be8 <__clzsi2>
    22f0:	1c02      	adds	r2, r0, #0
    22f2:	3220      	adds	r2, #32
    22f4:	2a27      	cmp	r2, #39	; 0x27
    22f6:	dc00      	bgt.n	22fa <__aeabi_dmul+0x41e>
    22f8:	e675      	b.n	1fe6 <__aeabi_dmul+0x10a>
    22fa:	3808      	subs	r0, #8
    22fc:	4085      	lsls	r5, r0
    22fe:	2600      	movs	r6, #0
    2300:	46ab      	mov	fp, r5
    2302:	e67d      	b.n	2000 <__aeabi_dmul+0x124>
    2304:	465a      	mov	r2, fp
    2306:	08f6      	lsrs	r6, r6, #3
    2308:	0752      	lsls	r2, r2, #29
    230a:	4316      	orrs	r6, r2
    230c:	465a      	mov	r2, fp
    230e:	2401      	movs	r4, #1
    2310:	0255      	lsls	r5, r2, #9
    2312:	9a02      	ldr	r2, [sp, #8]
    2314:	055b      	lsls	r3, r3, #21
    2316:	0b2d      	lsrs	r5, r5, #12
    2318:	0d5b      	lsrs	r3, r3, #21
    231a:	4014      	ands	r4, r2
    231c:	e642      	b.n	1fa4 <__aeabi_dmul+0xc8>
    231e:	4d38      	ldr	r5, [pc, #224]	; (2400 <__aeabi_dmul+0x524>)
    2320:	1bed      	subs	r5, r5, r7
    2322:	2d38      	cmp	r5, #56	; 0x38
    2324:	dd0a      	ble.n	233c <__aeabi_dmul+0x460>
    2326:	2401      	movs	r4, #1
    2328:	9b02      	ldr	r3, [sp, #8]
    232a:	2500      	movs	r5, #0
    232c:	401c      	ands	r4, r3
    232e:	2600      	movs	r6, #0
    2330:	2300      	movs	r3, #0
    2332:	e637      	b.n	1fa4 <__aeabi_dmul+0xc8>
    2334:	9b01      	ldr	r3, [sp, #4]
    2336:	4657      	mov	r7, sl
    2338:	9302      	str	r3, [sp, #8]
    233a:	e791      	b.n	2260 <__aeabi_dmul+0x384>
    233c:	2d1f      	cmp	r5, #31
    233e:	dc25      	bgt.n	238c <__aeabi_dmul+0x4b0>
    2340:	4b30      	ldr	r3, [pc, #192]	; (2404 <__aeabi_dmul+0x528>)
    2342:	1c32      	adds	r2, r6, #0
    2344:	469c      	mov	ip, r3
    2346:	4467      	add	r7, ip
    2348:	40be      	lsls	r6, r7
    234a:	465b      	mov	r3, fp
    234c:	40bb      	lsls	r3, r7
    234e:	1c37      	adds	r7, r6, #0
    2350:	40ea      	lsrs	r2, r5
    2352:	1e7e      	subs	r6, r7, #1
    2354:	41b7      	sbcs	r7, r6
    2356:	4313      	orrs	r3, r2
    2358:	433b      	orrs	r3, r7
    235a:	1c1e      	adds	r6, r3, #0
    235c:	465b      	mov	r3, fp
    235e:	40eb      	lsrs	r3, r5
    2360:	1c1d      	adds	r5, r3, #0
    2362:	0773      	lsls	r3, r6, #29
    2364:	d009      	beq.n	237a <__aeabi_dmul+0x49e>
    2366:	230f      	movs	r3, #15
    2368:	4033      	ands	r3, r6
    236a:	2b04      	cmp	r3, #4
    236c:	d005      	beq.n	237a <__aeabi_dmul+0x49e>
    236e:	1d33      	adds	r3, r6, #4
    2370:	42b3      	cmp	r3, r6
    2372:	41b6      	sbcs	r6, r6
    2374:	4276      	negs	r6, r6
    2376:	19ad      	adds	r5, r5, r6
    2378:	1c1e      	adds	r6, r3, #0
    237a:	022b      	lsls	r3, r5, #8
    237c:	d520      	bpl.n	23c0 <__aeabi_dmul+0x4e4>
    237e:	2401      	movs	r4, #1
    2380:	9b02      	ldr	r3, [sp, #8]
    2382:	2500      	movs	r5, #0
    2384:	401c      	ands	r4, r3
    2386:	2600      	movs	r6, #0
    2388:	2301      	movs	r3, #1
    238a:	e60b      	b.n	1fa4 <__aeabi_dmul+0xc8>
    238c:	465a      	mov	r2, fp
    238e:	4b1e      	ldr	r3, [pc, #120]	; (2408 <__aeabi_dmul+0x52c>)
    2390:	1bdb      	subs	r3, r3, r7
    2392:	40da      	lsrs	r2, r3
    2394:	1c13      	adds	r3, r2, #0
    2396:	2d20      	cmp	r5, #32
    2398:	d01c      	beq.n	23d4 <__aeabi_dmul+0x4f8>
    239a:	4a1c      	ldr	r2, [pc, #112]	; (240c <__aeabi_dmul+0x530>)
    239c:	4694      	mov	ip, r2
    239e:	465a      	mov	r2, fp
    23a0:	4467      	add	r7, ip
    23a2:	40ba      	lsls	r2, r7
    23a4:	1c17      	adds	r7, r2, #0
    23a6:	433e      	orrs	r6, r7
    23a8:	1e72      	subs	r2, r6, #1
    23aa:	4196      	sbcs	r6, r2
    23ac:	431e      	orrs	r6, r3
    23ae:	2307      	movs	r3, #7
    23b0:	2500      	movs	r5, #0
    23b2:	4033      	ands	r3, r6
    23b4:	d007      	beq.n	23c6 <__aeabi_dmul+0x4ea>
    23b6:	230f      	movs	r3, #15
    23b8:	2500      	movs	r5, #0
    23ba:	4033      	ands	r3, r6
    23bc:	2b04      	cmp	r3, #4
    23be:	d1d6      	bne.n	236e <__aeabi_dmul+0x492>
    23c0:	076b      	lsls	r3, r5, #29
    23c2:	026d      	lsls	r5, r5, #9
    23c4:	0b2d      	lsrs	r5, r5, #12
    23c6:	2401      	movs	r4, #1
    23c8:	08f6      	lsrs	r6, r6, #3
    23ca:	431e      	orrs	r6, r3
    23cc:	9b02      	ldr	r3, [sp, #8]
    23ce:	401c      	ands	r4, r3
    23d0:	2300      	movs	r3, #0
    23d2:	e5e7      	b.n	1fa4 <__aeabi_dmul+0xc8>
    23d4:	2700      	movs	r7, #0
    23d6:	e7e6      	b.n	23a6 <__aeabi_dmul+0x4ca>
    23d8:	2580      	movs	r5, #128	; 0x80
    23da:	465b      	mov	r3, fp
    23dc:	2401      	movs	r4, #1
    23de:	032d      	lsls	r5, r5, #12
    23e0:	431d      	orrs	r5, r3
    23e2:	9b01      	ldr	r3, [sp, #4]
    23e4:	032d      	lsls	r5, r5, #12
    23e6:	4023      	ands	r3, r4
    23e8:	1c1c      	adds	r4, r3, #0
    23ea:	0b2d      	lsrs	r5, r5, #12
    23ec:	4b03      	ldr	r3, [pc, #12]	; (23fc <__aeabi_dmul+0x520>)
    23ee:	e5d9      	b.n	1fa4 <__aeabi_dmul+0xc8>
    23f0:	000003ff 	.word	0x000003ff
    23f4:	feffffff 	.word	0xfeffffff
    23f8:	000007fe 	.word	0x000007fe
    23fc:	000007ff 	.word	0x000007ff
    2400:	fffffc02 	.word	0xfffffc02
    2404:	0000041e 	.word	0x0000041e
    2408:	fffffbe2 	.word	0xfffffbe2
    240c:	0000043e 	.word	0x0000043e

00002410 <__aeabi_dsub>:
    2410:	b5f0      	push	{r4, r5, r6, r7, lr}
    2412:	464d      	mov	r5, r9
    2414:	4644      	mov	r4, r8
    2416:	465f      	mov	r7, fp
    2418:	4656      	mov	r6, sl
    241a:	b4f0      	push	{r4, r5, r6, r7}
    241c:	1c0e      	adds	r6, r1, #0
    241e:	1c11      	adds	r1, r2, #0
    2420:	0332      	lsls	r2, r6, #12
    2422:	0a52      	lsrs	r2, r2, #9
    2424:	0f47      	lsrs	r7, r0, #29
    2426:	4317      	orrs	r7, r2
    2428:	00c5      	lsls	r5, r0, #3
    242a:	031a      	lsls	r2, r3, #12
    242c:	0058      	lsls	r0, r3, #1
    242e:	0fdb      	lsrs	r3, r3, #31
    2430:	4699      	mov	r9, r3
    2432:	0a52      	lsrs	r2, r2, #9
    2434:	0f4b      	lsrs	r3, r1, #29
    2436:	b083      	sub	sp, #12
    2438:	431a      	orrs	r2, r3
    243a:	00cb      	lsls	r3, r1, #3
    243c:	9301      	str	r3, [sp, #4]
    243e:	4bcf      	ldr	r3, [pc, #828]	; (277c <__aeabi_dsub+0x36c>)
    2440:	0074      	lsls	r4, r6, #1
    2442:	0ff6      	lsrs	r6, r6, #31
    2444:	0d64      	lsrs	r4, r4, #21
    2446:	46b0      	mov	r8, r6
    2448:	0d40      	lsrs	r0, r0, #21
    244a:	4298      	cmp	r0, r3
    244c:	d100      	bne.n	2450 <__aeabi_dsub+0x40>
    244e:	e0e8      	b.n	2622 <__aeabi_dsub+0x212>
    2450:	2301      	movs	r3, #1
    2452:	4649      	mov	r1, r9
    2454:	4059      	eors	r1, r3
    2456:	1c0b      	adds	r3, r1, #0
    2458:	429e      	cmp	r6, r3
    245a:	d100      	bne.n	245e <__aeabi_dsub+0x4e>
    245c:	e0b1      	b.n	25c2 <__aeabi_dsub+0x1b2>
    245e:	1a26      	subs	r6, r4, r0
    2460:	2e00      	cmp	r6, #0
    2462:	dc00      	bgt.n	2466 <__aeabi_dsub+0x56>
    2464:	e11c      	b.n	26a0 <__aeabi_dsub+0x290>
    2466:	2800      	cmp	r0, #0
    2468:	d142      	bne.n	24f0 <__aeabi_dsub+0xe0>
    246a:	1c13      	adds	r3, r2, #0
    246c:	9901      	ldr	r1, [sp, #4]
    246e:	430b      	orrs	r3, r1
    2470:	d000      	beq.n	2474 <__aeabi_dsub+0x64>
    2472:	e0e6      	b.n	2642 <__aeabi_dsub+0x232>
    2474:	076b      	lsls	r3, r5, #29
    2476:	d100      	bne.n	247a <__aeabi_dsub+0x6a>
    2478:	e08e      	b.n	2598 <__aeabi_dsub+0x188>
    247a:	230f      	movs	r3, #15
    247c:	402b      	ands	r3, r5
    247e:	2b04      	cmp	r3, #4
    2480:	d100      	bne.n	2484 <__aeabi_dsub+0x74>
    2482:	e089      	b.n	2598 <__aeabi_dsub+0x188>
    2484:	1d2a      	adds	r2, r5, #4
    2486:	42aa      	cmp	r2, r5
    2488:	41ad      	sbcs	r5, r5
    248a:	2380      	movs	r3, #128	; 0x80
    248c:	2601      	movs	r6, #1
    248e:	4641      	mov	r1, r8
    2490:	426d      	negs	r5, r5
    2492:	197f      	adds	r7, r7, r5
    2494:	041b      	lsls	r3, r3, #16
    2496:	403b      	ands	r3, r7
    2498:	400e      	ands	r6, r1
    249a:	1c15      	adds	r5, r2, #0
    249c:	2b00      	cmp	r3, #0
    249e:	d100      	bne.n	24a2 <__aeabi_dsub+0x92>
    24a0:	e083      	b.n	25aa <__aeabi_dsub+0x19a>
    24a2:	4bb6      	ldr	r3, [pc, #728]	; (277c <__aeabi_dsub+0x36c>)
    24a4:	3401      	adds	r4, #1
    24a6:	429c      	cmp	r4, r3
    24a8:	d100      	bne.n	24ac <__aeabi_dsub+0x9c>
    24aa:	e116      	b.n	26da <__aeabi_dsub+0x2ca>
    24ac:	1c3a      	adds	r2, r7, #0
    24ae:	4bb4      	ldr	r3, [pc, #720]	; (2780 <__aeabi_dsub+0x370>)
    24b0:	08ed      	lsrs	r5, r5, #3
    24b2:	401a      	ands	r2, r3
    24b4:	0750      	lsls	r0, r2, #29
    24b6:	0564      	lsls	r4, r4, #21
    24b8:	0252      	lsls	r2, r2, #9
    24ba:	4305      	orrs	r5, r0
    24bc:	0b12      	lsrs	r2, r2, #12
    24be:	0d64      	lsrs	r4, r4, #21
    24c0:	2100      	movs	r1, #0
    24c2:	0312      	lsls	r2, r2, #12
    24c4:	0d0b      	lsrs	r3, r1, #20
    24c6:	051b      	lsls	r3, r3, #20
    24c8:	0564      	lsls	r4, r4, #21
    24ca:	0b12      	lsrs	r2, r2, #12
    24cc:	431a      	orrs	r2, r3
    24ce:	0863      	lsrs	r3, r4, #1
    24d0:	4cac      	ldr	r4, [pc, #688]	; (2784 <__aeabi_dsub+0x374>)
    24d2:	07f6      	lsls	r6, r6, #31
    24d4:	4014      	ands	r4, r2
    24d6:	431c      	orrs	r4, r3
    24d8:	0064      	lsls	r4, r4, #1
    24da:	0864      	lsrs	r4, r4, #1
    24dc:	4334      	orrs	r4, r6
    24de:	1c28      	adds	r0, r5, #0
    24e0:	1c21      	adds	r1, r4, #0
    24e2:	b003      	add	sp, #12
    24e4:	bc3c      	pop	{r2, r3, r4, r5}
    24e6:	4690      	mov	r8, r2
    24e8:	4699      	mov	r9, r3
    24ea:	46a2      	mov	sl, r4
    24ec:	46ab      	mov	fp, r5
    24ee:	bdf0      	pop	{r4, r5, r6, r7, pc}
    24f0:	4ba2      	ldr	r3, [pc, #648]	; (277c <__aeabi_dsub+0x36c>)
    24f2:	429c      	cmp	r4, r3
    24f4:	d0be      	beq.n	2474 <__aeabi_dsub+0x64>
    24f6:	2380      	movs	r3, #128	; 0x80
    24f8:	041b      	lsls	r3, r3, #16
    24fa:	431a      	orrs	r2, r3
    24fc:	2e38      	cmp	r6, #56	; 0x38
    24fe:	dd00      	ble.n	2502 <__aeabi_dsub+0xf2>
    2500:	e103      	b.n	270a <__aeabi_dsub+0x2fa>
    2502:	2e1f      	cmp	r6, #31
    2504:	dd00      	ble.n	2508 <__aeabi_dsub+0xf8>
    2506:	e13f      	b.n	2788 <__aeabi_dsub+0x378>
    2508:	2020      	movs	r0, #32
    250a:	1b83      	subs	r3, r0, r6
    250c:	4699      	mov	r9, r3
    250e:	1c13      	adds	r3, r2, #0
    2510:	4649      	mov	r1, r9
    2512:	408b      	lsls	r3, r1
    2514:	469c      	mov	ip, r3
    2516:	9b01      	ldr	r3, [sp, #4]
    2518:	4660      	mov	r0, ip
    251a:	40f3      	lsrs	r3, r6
    251c:	4303      	orrs	r3, r0
    251e:	9801      	ldr	r0, [sp, #4]
    2520:	40f2      	lsrs	r2, r6
    2522:	4088      	lsls	r0, r1
    2524:	1c01      	adds	r1, r0, #0
    2526:	1e48      	subs	r0, r1, #1
    2528:	4181      	sbcs	r1, r0
    252a:	430b      	orrs	r3, r1
    252c:	1aeb      	subs	r3, r5, r3
    252e:	429d      	cmp	r5, r3
    2530:	4180      	sbcs	r0, r0
    2532:	1c1d      	adds	r5, r3, #0
    2534:	1aba      	subs	r2, r7, r2
    2536:	4240      	negs	r0, r0
    2538:	1a17      	subs	r7, r2, r0
    253a:	023b      	lsls	r3, r7, #8
    253c:	d400      	bmi.n	2540 <__aeabi_dsub+0x130>
    253e:	e0a8      	b.n	2692 <__aeabi_dsub+0x282>
    2540:	027a      	lsls	r2, r7, #9
    2542:	0a56      	lsrs	r6, r2, #9
    2544:	2e00      	cmp	r6, #0
    2546:	d100      	bne.n	254a <__aeabi_dsub+0x13a>
    2548:	e0ca      	b.n	26e0 <__aeabi_dsub+0x2d0>
    254a:	1c30      	adds	r0, r6, #0
    254c:	f000 fb4c 	bl	2be8 <__clzsi2>
    2550:	1c03      	adds	r3, r0, #0
    2552:	3b08      	subs	r3, #8
    2554:	2b1f      	cmp	r3, #31
    2556:	dd00      	ble.n	255a <__aeabi_dsub+0x14a>
    2558:	e0cb      	b.n	26f2 <__aeabi_dsub+0x2e2>
    255a:	2228      	movs	r2, #40	; 0x28
    255c:	1c29      	adds	r1, r5, #0
    255e:	1a12      	subs	r2, r2, r0
    2560:	40d1      	lsrs	r1, r2
    2562:	409e      	lsls	r6, r3
    2564:	1c0a      	adds	r2, r1, #0
    2566:	409d      	lsls	r5, r3
    2568:	4332      	orrs	r2, r6
    256a:	429c      	cmp	r4, r3
    256c:	dd00      	ble.n	2570 <__aeabi_dsub+0x160>
    256e:	e0c8      	b.n	2702 <__aeabi_dsub+0x2f2>
    2570:	1b1c      	subs	r4, r3, r4
    2572:	1c67      	adds	r7, r4, #1
    2574:	2f1f      	cmp	r7, #31
    2576:	dd00      	ble.n	257a <__aeabi_dsub+0x16a>
    2578:	e0ed      	b.n	2756 <__aeabi_dsub+0x346>
    257a:	231f      	movs	r3, #31
    257c:	1c29      	adds	r1, r5, #0
    257e:	1b1c      	subs	r4, r3, r4
    2580:	1c13      	adds	r3, r2, #0
    2582:	40a5      	lsls	r5, r4
    2584:	40a3      	lsls	r3, r4
    2586:	40f9      	lsrs	r1, r7
    2588:	1e6c      	subs	r4, r5, #1
    258a:	41a5      	sbcs	r5, r4
    258c:	40fa      	lsrs	r2, r7
    258e:	4319      	orrs	r1, r3
    2590:	430d      	orrs	r5, r1
    2592:	1c17      	adds	r7, r2, #0
    2594:	2400      	movs	r4, #0
    2596:	e76d      	b.n	2474 <__aeabi_dsub+0x64>
    2598:	2380      	movs	r3, #128	; 0x80
    259a:	2601      	movs	r6, #1
    259c:	4642      	mov	r2, r8
    259e:	041b      	lsls	r3, r3, #16
    25a0:	403b      	ands	r3, r7
    25a2:	4016      	ands	r6, r2
    25a4:	2b00      	cmp	r3, #0
    25a6:	d000      	beq.n	25aa <__aeabi_dsub+0x19a>
    25a8:	e77b      	b.n	24a2 <__aeabi_dsub+0x92>
    25aa:	4b74      	ldr	r3, [pc, #464]	; (277c <__aeabi_dsub+0x36c>)
    25ac:	08ed      	lsrs	r5, r5, #3
    25ae:	0778      	lsls	r0, r7, #29
    25b0:	4305      	orrs	r5, r0
    25b2:	08fa      	lsrs	r2, r7, #3
    25b4:	429c      	cmp	r4, r3
    25b6:	d03b      	beq.n	2630 <__aeabi_dsub+0x220>
    25b8:	0312      	lsls	r2, r2, #12
    25ba:	0564      	lsls	r4, r4, #21
    25bc:	0b12      	lsrs	r2, r2, #12
    25be:	0d64      	lsrs	r4, r4, #21
    25c0:	e77e      	b.n	24c0 <__aeabi_dsub+0xb0>
    25c2:	1a23      	subs	r3, r4, r0
    25c4:	469a      	mov	sl, r3
    25c6:	2b00      	cmp	r3, #0
    25c8:	dc00      	bgt.n	25cc <__aeabi_dsub+0x1bc>
    25ca:	e0a5      	b.n	2718 <__aeabi_dsub+0x308>
    25cc:	2800      	cmp	r0, #0
    25ce:	d044      	beq.n	265a <__aeabi_dsub+0x24a>
    25d0:	486a      	ldr	r0, [pc, #424]	; (277c <__aeabi_dsub+0x36c>)
    25d2:	4284      	cmp	r4, r0
    25d4:	d100      	bne.n	25d8 <__aeabi_dsub+0x1c8>
    25d6:	e74d      	b.n	2474 <__aeabi_dsub+0x64>
    25d8:	2080      	movs	r0, #128	; 0x80
    25da:	0400      	lsls	r0, r0, #16
    25dc:	4302      	orrs	r2, r0
    25de:	4653      	mov	r3, sl
    25e0:	2b38      	cmp	r3, #56	; 0x38
    25e2:	dc00      	bgt.n	25e6 <__aeabi_dsub+0x1d6>
    25e4:	e11c      	b.n	2820 <__aeabi_dsub+0x410>
    25e6:	9b01      	ldr	r3, [sp, #4]
    25e8:	431a      	orrs	r2, r3
    25ea:	1e51      	subs	r1, r2, #1
    25ec:	418a      	sbcs	r2, r1
    25ee:	b2d1      	uxtb	r1, r2
    25f0:	2200      	movs	r2, #0
    25f2:	1949      	adds	r1, r1, r5
    25f4:	42a9      	cmp	r1, r5
    25f6:	4180      	sbcs	r0, r0
    25f8:	1c0d      	adds	r5, r1, #0
    25fa:	19d2      	adds	r2, r2, r7
    25fc:	4240      	negs	r0, r0
    25fe:	1817      	adds	r7, r2, r0
    2600:	023b      	lsls	r3, r7, #8
    2602:	d546      	bpl.n	2692 <__aeabi_dsub+0x282>
    2604:	4b5d      	ldr	r3, [pc, #372]	; (277c <__aeabi_dsub+0x36c>)
    2606:	3401      	adds	r4, #1
    2608:	429c      	cmp	r4, r3
    260a:	d100      	bne.n	260e <__aeabi_dsub+0x1fe>
    260c:	e169      	b.n	28e2 <__aeabi_dsub+0x4d2>
    260e:	2001      	movs	r0, #1
    2610:	4a5b      	ldr	r2, [pc, #364]	; (2780 <__aeabi_dsub+0x370>)
    2612:	086b      	lsrs	r3, r5, #1
    2614:	403a      	ands	r2, r7
    2616:	4028      	ands	r0, r5
    2618:	4318      	orrs	r0, r3
    261a:	07d5      	lsls	r5, r2, #31
    261c:	4305      	orrs	r5, r0
    261e:	0857      	lsrs	r7, r2, #1
    2620:	e728      	b.n	2474 <__aeabi_dsub+0x64>
    2622:	1c13      	adds	r3, r2, #0
    2624:	9901      	ldr	r1, [sp, #4]
    2626:	430b      	orrs	r3, r1
    2628:	d100      	bne.n	262c <__aeabi_dsub+0x21c>
    262a:	e711      	b.n	2450 <__aeabi_dsub+0x40>
    262c:	464b      	mov	r3, r9
    262e:	e713      	b.n	2458 <__aeabi_dsub+0x48>
    2630:	1c2b      	adds	r3, r5, #0
    2632:	4313      	orrs	r3, r2
    2634:	d051      	beq.n	26da <__aeabi_dsub+0x2ca>
    2636:	2380      	movs	r3, #128	; 0x80
    2638:	031b      	lsls	r3, r3, #12
    263a:	431a      	orrs	r2, r3
    263c:	0312      	lsls	r2, r2, #12
    263e:	0b12      	lsrs	r2, r2, #12
    2640:	e73e      	b.n	24c0 <__aeabi_dsub+0xb0>
    2642:	3e01      	subs	r6, #1
    2644:	2e00      	cmp	r6, #0
    2646:	d000      	beq.n	264a <__aeabi_dsub+0x23a>
    2648:	e080      	b.n	274c <__aeabi_dsub+0x33c>
    264a:	1a69      	subs	r1, r5, r1
    264c:	428d      	cmp	r5, r1
    264e:	419b      	sbcs	r3, r3
    2650:	1aba      	subs	r2, r7, r2
    2652:	425b      	negs	r3, r3
    2654:	1ad7      	subs	r7, r2, r3
    2656:	1c0d      	adds	r5, r1, #0
    2658:	e76f      	b.n	253a <__aeabi_dsub+0x12a>
    265a:	1c10      	adds	r0, r2, #0
    265c:	9b01      	ldr	r3, [sp, #4]
    265e:	4318      	orrs	r0, r3
    2660:	d100      	bne.n	2664 <__aeabi_dsub+0x254>
    2662:	e707      	b.n	2474 <__aeabi_dsub+0x64>
    2664:	2301      	movs	r3, #1
    2666:	425b      	negs	r3, r3
    2668:	469c      	mov	ip, r3
    266a:	44e2      	add	sl, ip
    266c:	4653      	mov	r3, sl
    266e:	2b00      	cmp	r3, #0
    2670:	d000      	beq.n	2674 <__aeabi_dsub+0x264>
    2672:	e102      	b.n	287a <__aeabi_dsub+0x46a>
    2674:	9b01      	ldr	r3, [sp, #4]
    2676:	19d2      	adds	r2, r2, r7
    2678:	1959      	adds	r1, r3, r5
    267a:	42a9      	cmp	r1, r5
    267c:	419b      	sbcs	r3, r3
    267e:	425b      	negs	r3, r3
    2680:	18d7      	adds	r7, r2, r3
    2682:	1c0d      	adds	r5, r1, #0
    2684:	e7bc      	b.n	2600 <__aeabi_dsub+0x1f0>
    2686:	4663      	mov	r3, ip
    2688:	4303      	orrs	r3, r0
    268a:	d100      	bne.n	268e <__aeabi_dsub+0x27e>
    268c:	e128      	b.n	28e0 <__aeabi_dsub+0x4d0>
    268e:	1c07      	adds	r7, r0, #0
    2690:	4665      	mov	r5, ip
    2692:	076b      	lsls	r3, r5, #29
    2694:	d000      	beq.n	2698 <__aeabi_dsub+0x288>
    2696:	e6f0      	b.n	247a <__aeabi_dsub+0x6a>
    2698:	2601      	movs	r6, #1
    269a:	4643      	mov	r3, r8
    269c:	401e      	ands	r6, r3
    269e:	e784      	b.n	25aa <__aeabi_dsub+0x19a>
    26a0:	2e00      	cmp	r6, #0
    26a2:	d000      	beq.n	26a6 <__aeabi_dsub+0x296>
    26a4:	e081      	b.n	27aa <__aeabi_dsub+0x39a>
    26a6:	1c60      	adds	r0, r4, #1
    26a8:	0540      	lsls	r0, r0, #21
    26aa:	0d40      	lsrs	r0, r0, #21
    26ac:	2801      	cmp	r0, #1
    26ae:	dc00      	bgt.n	26b2 <__aeabi_dsub+0x2a2>
    26b0:	e107      	b.n	28c2 <__aeabi_dsub+0x4b2>
    26b2:	9901      	ldr	r1, [sp, #4]
    26b4:	1a68      	subs	r0, r5, r1
    26b6:	4684      	mov	ip, r0
    26b8:	4565      	cmp	r5, ip
    26ba:	41b6      	sbcs	r6, r6
    26bc:	1ab8      	subs	r0, r7, r2
    26be:	4276      	negs	r6, r6
    26c0:	1b86      	subs	r6, r0, r6
    26c2:	0230      	lsls	r0, r6, #8
    26c4:	d400      	bmi.n	26c8 <__aeabi_dsub+0x2b8>
    26c6:	e0a1      	b.n	280c <__aeabi_dsub+0x3fc>
    26c8:	468c      	mov	ip, r1
    26ca:	1b4d      	subs	r5, r1, r5
    26cc:	45ac      	cmp	ip, r5
    26ce:	4189      	sbcs	r1, r1
    26d0:	1bd2      	subs	r2, r2, r7
    26d2:	4249      	negs	r1, r1
    26d4:	1a56      	subs	r6, r2, r1
    26d6:	4698      	mov	r8, r3
    26d8:	e734      	b.n	2544 <__aeabi_dsub+0x134>
    26da:	2200      	movs	r2, #0
    26dc:	2500      	movs	r5, #0
    26de:	e6ef      	b.n	24c0 <__aeabi_dsub+0xb0>
    26e0:	1c28      	adds	r0, r5, #0
    26e2:	f000 fa81 	bl	2be8 <__clzsi2>
    26e6:	3020      	adds	r0, #32
    26e8:	1c03      	adds	r3, r0, #0
    26ea:	3b08      	subs	r3, #8
    26ec:	2b1f      	cmp	r3, #31
    26ee:	dc00      	bgt.n	26f2 <__aeabi_dsub+0x2e2>
    26f0:	e733      	b.n	255a <__aeabi_dsub+0x14a>
    26f2:	1c02      	adds	r2, r0, #0
    26f4:	3a28      	subs	r2, #40	; 0x28
    26f6:	4095      	lsls	r5, r2
    26f8:	1c2a      	adds	r2, r5, #0
    26fa:	2500      	movs	r5, #0
    26fc:	429c      	cmp	r4, r3
    26fe:	dc00      	bgt.n	2702 <__aeabi_dsub+0x2f2>
    2700:	e736      	b.n	2570 <__aeabi_dsub+0x160>
    2702:	4f1f      	ldr	r7, [pc, #124]	; (2780 <__aeabi_dsub+0x370>)
    2704:	1ae4      	subs	r4, r4, r3
    2706:	4017      	ands	r7, r2
    2708:	e6b4      	b.n	2474 <__aeabi_dsub+0x64>
    270a:	9b01      	ldr	r3, [sp, #4]
    270c:	431a      	orrs	r2, r3
    270e:	1e51      	subs	r1, r2, #1
    2710:	418a      	sbcs	r2, r1
    2712:	b2d3      	uxtb	r3, r2
    2714:	2200      	movs	r2, #0
    2716:	e709      	b.n	252c <__aeabi_dsub+0x11c>
    2718:	2b00      	cmp	r3, #0
    271a:	d000      	beq.n	271e <__aeabi_dsub+0x30e>
    271c:	e101      	b.n	2922 <__aeabi_dsub+0x512>
    271e:	1c60      	adds	r0, r4, #1
    2720:	0543      	lsls	r3, r0, #21
    2722:	0d5b      	lsrs	r3, r3, #21
    2724:	2b01      	cmp	r3, #1
    2726:	dc00      	bgt.n	272a <__aeabi_dsub+0x31a>
    2728:	e0b0      	b.n	288c <__aeabi_dsub+0x47c>
    272a:	4b14      	ldr	r3, [pc, #80]	; (277c <__aeabi_dsub+0x36c>)
    272c:	4298      	cmp	r0, r3
    272e:	d100      	bne.n	2732 <__aeabi_dsub+0x322>
    2730:	e11e      	b.n	2970 <__aeabi_dsub+0x560>
    2732:	9b01      	ldr	r3, [sp, #4]
    2734:	19d2      	adds	r2, r2, r7
    2736:	1959      	adds	r1, r3, r5
    2738:	42a9      	cmp	r1, r5
    273a:	419b      	sbcs	r3, r3
    273c:	425b      	negs	r3, r3
    273e:	18d2      	adds	r2, r2, r3
    2740:	0849      	lsrs	r1, r1, #1
    2742:	07d5      	lsls	r5, r2, #31
    2744:	430d      	orrs	r5, r1
    2746:	0857      	lsrs	r7, r2, #1
    2748:	1c04      	adds	r4, r0, #0
    274a:	e693      	b.n	2474 <__aeabi_dsub+0x64>
    274c:	4b0b      	ldr	r3, [pc, #44]	; (277c <__aeabi_dsub+0x36c>)
    274e:	429c      	cmp	r4, r3
    2750:	d000      	beq.n	2754 <__aeabi_dsub+0x344>
    2752:	e6d3      	b.n	24fc <__aeabi_dsub+0xec>
    2754:	e68e      	b.n	2474 <__aeabi_dsub+0x64>
    2756:	1c21      	adds	r1, r4, #0
    2758:	1c13      	adds	r3, r2, #0
    275a:	391f      	subs	r1, #31
    275c:	40cb      	lsrs	r3, r1
    275e:	1c19      	adds	r1, r3, #0
    2760:	2f20      	cmp	r7, #32
    2762:	d100      	bne.n	2766 <__aeabi_dsub+0x356>
    2764:	e08e      	b.n	2884 <__aeabi_dsub+0x474>
    2766:	233f      	movs	r3, #63	; 0x3f
    2768:	1b1c      	subs	r4, r3, r4
    276a:	40a2      	lsls	r2, r4
    276c:	4315      	orrs	r5, r2
    276e:	1e6a      	subs	r2, r5, #1
    2770:	4195      	sbcs	r5, r2
    2772:	2700      	movs	r7, #0
    2774:	430d      	orrs	r5, r1
    2776:	2400      	movs	r4, #0
    2778:	e78b      	b.n	2692 <__aeabi_dsub+0x282>
    277a:	46c0      	nop			; (mov r8, r8)
    277c:	000007ff 	.word	0x000007ff
    2780:	ff7fffff 	.word	0xff7fffff
    2784:	800fffff 	.word	0x800fffff
    2788:	1c33      	adds	r3, r6, #0
    278a:	1c10      	adds	r0, r2, #0
    278c:	3b20      	subs	r3, #32
    278e:	40d8      	lsrs	r0, r3
    2790:	2e20      	cmp	r6, #32
    2792:	d079      	beq.n	2888 <__aeabi_dsub+0x478>
    2794:	2340      	movs	r3, #64	; 0x40
    2796:	1b9b      	subs	r3, r3, r6
    2798:	409a      	lsls	r2, r3
    279a:	1c13      	adds	r3, r2, #0
    279c:	9a01      	ldr	r2, [sp, #4]
    279e:	4313      	orrs	r3, r2
    27a0:	1e59      	subs	r1, r3, #1
    27a2:	418b      	sbcs	r3, r1
    27a4:	2200      	movs	r2, #0
    27a6:	4303      	orrs	r3, r0
    27a8:	e6c0      	b.n	252c <__aeabi_dsub+0x11c>
    27aa:	2c00      	cmp	r4, #0
    27ac:	d053      	beq.n	2856 <__aeabi_dsub+0x446>
    27ae:	4cc7      	ldr	r4, [pc, #796]	; (2acc <__aeabi_dsub+0x6bc>)
    27b0:	42a0      	cmp	r0, r4
    27b2:	d100      	bne.n	27b6 <__aeabi_dsub+0x3a6>
    27b4:	e0b0      	b.n	2918 <__aeabi_dsub+0x508>
    27b6:	2480      	movs	r4, #128	; 0x80
    27b8:	4271      	negs	r1, r6
    27ba:	4689      	mov	r9, r1
    27bc:	0424      	lsls	r4, r4, #16
    27be:	4327      	orrs	r7, r4
    27c0:	4649      	mov	r1, r9
    27c2:	2938      	cmp	r1, #56	; 0x38
    27c4:	dd00      	ble.n	27c8 <__aeabi_dsub+0x3b8>
    27c6:	e0cd      	b.n	2964 <__aeabi_dsub+0x554>
    27c8:	291f      	cmp	r1, #31
    27ca:	dd00      	ble.n	27ce <__aeabi_dsub+0x3be>
    27cc:	e159      	b.n	2a82 <__aeabi_dsub+0x672>
    27ce:	2420      	movs	r4, #32
    27d0:	1c3e      	adds	r6, r7, #0
    27d2:	1a61      	subs	r1, r4, r1
    27d4:	408e      	lsls	r6, r1
    27d6:	468a      	mov	sl, r1
    27d8:	46b0      	mov	r8, r6
    27da:	4649      	mov	r1, r9
    27dc:	1c2e      	adds	r6, r5, #0
    27de:	40ce      	lsrs	r6, r1
    27e0:	4651      	mov	r1, sl
    27e2:	46b4      	mov	ip, r6
    27e4:	408d      	lsls	r5, r1
    27e6:	4664      	mov	r4, ip
    27e8:	4646      	mov	r6, r8
    27ea:	4649      	mov	r1, r9
    27ec:	4326      	orrs	r6, r4
    27ee:	1e6c      	subs	r4, r5, #1
    27f0:	41a5      	sbcs	r5, r4
    27f2:	40cf      	lsrs	r7, r1
    27f4:	4335      	orrs	r5, r6
    27f6:	9901      	ldr	r1, [sp, #4]
    27f8:	1bd7      	subs	r7, r2, r7
    27fa:	468c      	mov	ip, r1
    27fc:	1b4d      	subs	r5, r1, r5
    27fe:	45ac      	cmp	ip, r5
    2800:	4192      	sbcs	r2, r2
    2802:	4252      	negs	r2, r2
    2804:	1abf      	subs	r7, r7, r2
    2806:	1c04      	adds	r4, r0, #0
    2808:	4698      	mov	r8, r3
    280a:	e696      	b.n	253a <__aeabi_dsub+0x12a>
    280c:	4663      	mov	r3, ip
    280e:	4665      	mov	r5, ip
    2810:	4333      	orrs	r3, r6
    2812:	d000      	beq.n	2816 <__aeabi_dsub+0x406>
    2814:	e696      	b.n	2544 <__aeabi_dsub+0x134>
    2816:	2600      	movs	r6, #0
    2818:	2700      	movs	r7, #0
    281a:	2400      	movs	r4, #0
    281c:	2500      	movs	r5, #0
    281e:	e6c4      	b.n	25aa <__aeabi_dsub+0x19a>
    2820:	2b1f      	cmp	r3, #31
    2822:	dc61      	bgt.n	28e8 <__aeabi_dsub+0x4d8>
    2824:	2020      	movs	r0, #32
    2826:	1ac3      	subs	r3, r0, r3
    2828:	469b      	mov	fp, r3
    282a:	1c13      	adds	r3, r2, #0
    282c:	4659      	mov	r1, fp
    282e:	408b      	lsls	r3, r1
    2830:	4651      	mov	r1, sl
    2832:	4699      	mov	r9, r3
    2834:	9b01      	ldr	r3, [sp, #4]
    2836:	40cb      	lsrs	r3, r1
    2838:	469c      	mov	ip, r3
    283a:	464b      	mov	r3, r9
    283c:	4660      	mov	r0, ip
    283e:	4303      	orrs	r3, r0
    2840:	469c      	mov	ip, r3
    2842:	465b      	mov	r3, fp
    2844:	9901      	ldr	r1, [sp, #4]
    2846:	4099      	lsls	r1, r3
    2848:	4663      	mov	r3, ip
    284a:	1e48      	subs	r0, r1, #1
    284c:	4181      	sbcs	r1, r0
    284e:	4319      	orrs	r1, r3
    2850:	4653      	mov	r3, sl
    2852:	40da      	lsrs	r2, r3
    2854:	e6cd      	b.n	25f2 <__aeabi_dsub+0x1e2>
    2856:	1c3c      	adds	r4, r7, #0
    2858:	432c      	orrs	r4, r5
    285a:	d05d      	beq.n	2918 <__aeabi_dsub+0x508>
    285c:	43f1      	mvns	r1, r6
    285e:	4689      	mov	r9, r1
    2860:	2900      	cmp	r1, #0
    2862:	d155      	bne.n	2910 <__aeabi_dsub+0x500>
    2864:	9901      	ldr	r1, [sp, #4]
    2866:	1bd2      	subs	r2, r2, r7
    2868:	468c      	mov	ip, r1
    286a:	1b4d      	subs	r5, r1, r5
    286c:	45ac      	cmp	ip, r5
    286e:	4189      	sbcs	r1, r1
    2870:	4249      	negs	r1, r1
    2872:	1a57      	subs	r7, r2, r1
    2874:	1c04      	adds	r4, r0, #0
    2876:	4698      	mov	r8, r3
    2878:	e65f      	b.n	253a <__aeabi_dsub+0x12a>
    287a:	4894      	ldr	r0, [pc, #592]	; (2acc <__aeabi_dsub+0x6bc>)
    287c:	4284      	cmp	r4, r0
    287e:	d000      	beq.n	2882 <__aeabi_dsub+0x472>
    2880:	e6ad      	b.n	25de <__aeabi_dsub+0x1ce>
    2882:	e5f7      	b.n	2474 <__aeabi_dsub+0x64>
    2884:	2200      	movs	r2, #0
    2886:	e771      	b.n	276c <__aeabi_dsub+0x35c>
    2888:	2300      	movs	r3, #0
    288a:	e787      	b.n	279c <__aeabi_dsub+0x38c>
    288c:	1c3b      	adds	r3, r7, #0
    288e:	432b      	orrs	r3, r5
    2890:	2c00      	cmp	r4, #0
    2892:	d000      	beq.n	2896 <__aeabi_dsub+0x486>
    2894:	e0da      	b.n	2a4c <__aeabi_dsub+0x63c>
    2896:	2b00      	cmp	r3, #0
    2898:	d100      	bne.n	289c <__aeabi_dsub+0x48c>
    289a:	e113      	b.n	2ac4 <__aeabi_dsub+0x6b4>
    289c:	1c13      	adds	r3, r2, #0
    289e:	9901      	ldr	r1, [sp, #4]
    28a0:	430b      	orrs	r3, r1
    28a2:	d100      	bne.n	28a6 <__aeabi_dsub+0x496>
    28a4:	e5e6      	b.n	2474 <__aeabi_dsub+0x64>
    28a6:	1949      	adds	r1, r1, r5
    28a8:	42a9      	cmp	r1, r5
    28aa:	419b      	sbcs	r3, r3
    28ac:	19d2      	adds	r2, r2, r7
    28ae:	425b      	negs	r3, r3
    28b0:	18d7      	adds	r7, r2, r3
    28b2:	023b      	lsls	r3, r7, #8
    28b4:	d400      	bmi.n	28b8 <__aeabi_dsub+0x4a8>
    28b6:	e121      	b.n	2afc <__aeabi_dsub+0x6ec>
    28b8:	4b85      	ldr	r3, [pc, #532]	; (2ad0 <__aeabi_dsub+0x6c0>)
    28ba:	1c0d      	adds	r5, r1, #0
    28bc:	401f      	ands	r7, r3
    28be:	1c04      	adds	r4, r0, #0
    28c0:	e5d8      	b.n	2474 <__aeabi_dsub+0x64>
    28c2:	1c38      	adds	r0, r7, #0
    28c4:	4328      	orrs	r0, r5
    28c6:	2c00      	cmp	r4, #0
    28c8:	d140      	bne.n	294c <__aeabi_dsub+0x53c>
    28ca:	2800      	cmp	r0, #0
    28cc:	d000      	beq.n	28d0 <__aeabi_dsub+0x4c0>
    28ce:	e083      	b.n	29d8 <__aeabi_dsub+0x5c8>
    28d0:	1c10      	adds	r0, r2, #0
    28d2:	9901      	ldr	r1, [sp, #4]
    28d4:	4308      	orrs	r0, r1
    28d6:	d003      	beq.n	28e0 <__aeabi_dsub+0x4d0>
    28d8:	1c17      	adds	r7, r2, #0
    28da:	1c0d      	adds	r5, r1, #0
    28dc:	4698      	mov	r8, r3
    28de:	e5c9      	b.n	2474 <__aeabi_dsub+0x64>
    28e0:	2600      	movs	r6, #0
    28e2:	2700      	movs	r7, #0
    28e4:	2500      	movs	r5, #0
    28e6:	e660      	b.n	25aa <__aeabi_dsub+0x19a>
    28e8:	4650      	mov	r0, sl
    28ea:	1c13      	adds	r3, r2, #0
    28ec:	3820      	subs	r0, #32
    28ee:	40c3      	lsrs	r3, r0
    28f0:	1c18      	adds	r0, r3, #0
    28f2:	4653      	mov	r3, sl
    28f4:	2b20      	cmp	r3, #32
    28f6:	d100      	bne.n	28fa <__aeabi_dsub+0x4ea>
    28f8:	e0c1      	b.n	2a7e <__aeabi_dsub+0x66e>
    28fa:	2340      	movs	r3, #64	; 0x40
    28fc:	4651      	mov	r1, sl
    28fe:	1a5b      	subs	r3, r3, r1
    2900:	409a      	lsls	r2, r3
    2902:	9901      	ldr	r1, [sp, #4]
    2904:	4311      	orrs	r1, r2
    2906:	1e4a      	subs	r2, r1, #1
    2908:	4191      	sbcs	r1, r2
    290a:	2200      	movs	r2, #0
    290c:	4301      	orrs	r1, r0
    290e:	e670      	b.n	25f2 <__aeabi_dsub+0x1e2>
    2910:	4c6e      	ldr	r4, [pc, #440]	; (2acc <__aeabi_dsub+0x6bc>)
    2912:	42a0      	cmp	r0, r4
    2914:	d000      	beq.n	2918 <__aeabi_dsub+0x508>
    2916:	e753      	b.n	27c0 <__aeabi_dsub+0x3b0>
    2918:	1c17      	adds	r7, r2, #0
    291a:	9d01      	ldr	r5, [sp, #4]
    291c:	1c04      	adds	r4, r0, #0
    291e:	4698      	mov	r8, r3
    2920:	e5a8      	b.n	2474 <__aeabi_dsub+0x64>
    2922:	2c00      	cmp	r4, #0
    2924:	d128      	bne.n	2978 <__aeabi_dsub+0x568>
    2926:	1c3c      	adds	r4, r7, #0
    2928:	432c      	orrs	r4, r5
    292a:	d100      	bne.n	292e <__aeabi_dsub+0x51e>
    292c:	e08a      	b.n	2a44 <__aeabi_dsub+0x634>
    292e:	43db      	mvns	r3, r3
    2930:	469a      	mov	sl, r3
    2932:	2b00      	cmp	r3, #0
    2934:	d000      	beq.n	2938 <__aeabi_dsub+0x528>
    2936:	e082      	b.n	2a3e <__aeabi_dsub+0x62e>
    2938:	9b01      	ldr	r3, [sp, #4]
    293a:	19d2      	adds	r2, r2, r7
    293c:	469c      	mov	ip, r3
    293e:	4465      	add	r5, ip
    2940:	429d      	cmp	r5, r3
    2942:	4189      	sbcs	r1, r1
    2944:	4249      	negs	r1, r1
    2946:	1857      	adds	r7, r2, r1
    2948:	1c04      	adds	r4, r0, #0
    294a:	e659      	b.n	2600 <__aeabi_dsub+0x1f0>
    294c:	2800      	cmp	r0, #0
    294e:	d15b      	bne.n	2a08 <__aeabi_dsub+0x5f8>
    2950:	1c10      	adds	r0, r2, #0
    2952:	9901      	ldr	r1, [sp, #4]
    2954:	4308      	orrs	r0, r1
    2956:	d100      	bne.n	295a <__aeabi_dsub+0x54a>
    2958:	e0a4      	b.n	2aa4 <__aeabi_dsub+0x694>
    295a:	1c17      	adds	r7, r2, #0
    295c:	1c0d      	adds	r5, r1, #0
    295e:	4698      	mov	r8, r3
    2960:	4c5a      	ldr	r4, [pc, #360]	; (2acc <__aeabi_dsub+0x6bc>)
    2962:	e587      	b.n	2474 <__aeabi_dsub+0x64>
    2964:	433d      	orrs	r5, r7
    2966:	1e6f      	subs	r7, r5, #1
    2968:	41bd      	sbcs	r5, r7
    296a:	2700      	movs	r7, #0
    296c:	b2ed      	uxtb	r5, r5
    296e:	e742      	b.n	27f6 <__aeabi_dsub+0x3e6>
    2970:	1c04      	adds	r4, r0, #0
    2972:	2700      	movs	r7, #0
    2974:	2500      	movs	r5, #0
    2976:	e618      	b.n	25aa <__aeabi_dsub+0x19a>
    2978:	4c54      	ldr	r4, [pc, #336]	; (2acc <__aeabi_dsub+0x6bc>)
    297a:	42a0      	cmp	r0, r4
    297c:	d062      	beq.n	2a44 <__aeabi_dsub+0x634>
    297e:	4653      	mov	r3, sl
    2980:	2480      	movs	r4, #128	; 0x80
    2982:	425b      	negs	r3, r3
    2984:	469a      	mov	sl, r3
    2986:	0424      	lsls	r4, r4, #16
    2988:	4327      	orrs	r7, r4
    298a:	4653      	mov	r3, sl
    298c:	2b38      	cmp	r3, #56	; 0x38
    298e:	dd00      	ble.n	2992 <__aeabi_dsub+0x582>
    2990:	e08e      	b.n	2ab0 <__aeabi_dsub+0x6a0>
    2992:	2b1f      	cmp	r3, #31
    2994:	dd00      	ble.n	2998 <__aeabi_dsub+0x588>
    2996:	e09d      	b.n	2ad4 <__aeabi_dsub+0x6c4>
    2998:	2420      	movs	r4, #32
    299a:	1ae3      	subs	r3, r4, r3
    299c:	469b      	mov	fp, r3
    299e:	1c3b      	adds	r3, r7, #0
    29a0:	4659      	mov	r1, fp
    29a2:	408b      	lsls	r3, r1
    29a4:	4651      	mov	r1, sl
    29a6:	4699      	mov	r9, r3
    29a8:	1c2b      	adds	r3, r5, #0
    29aa:	40cb      	lsrs	r3, r1
    29ac:	469c      	mov	ip, r3
    29ae:	464b      	mov	r3, r9
    29b0:	4664      	mov	r4, ip
    29b2:	4323      	orrs	r3, r4
    29b4:	469c      	mov	ip, r3
    29b6:	465b      	mov	r3, fp
    29b8:	409d      	lsls	r5, r3
    29ba:	4663      	mov	r3, ip
    29bc:	1e6c      	subs	r4, r5, #1
    29be:	41a5      	sbcs	r5, r4
    29c0:	40cf      	lsrs	r7, r1
    29c2:	431d      	orrs	r5, r3
    29c4:	9b01      	ldr	r3, [sp, #4]
    29c6:	18bf      	adds	r7, r7, r2
    29c8:	469c      	mov	ip, r3
    29ca:	4465      	add	r5, ip
    29cc:	429d      	cmp	r5, r3
    29ce:	4192      	sbcs	r2, r2
    29d0:	4252      	negs	r2, r2
    29d2:	18bf      	adds	r7, r7, r2
    29d4:	1c04      	adds	r4, r0, #0
    29d6:	e613      	b.n	2600 <__aeabi_dsub+0x1f0>
    29d8:	1c10      	adds	r0, r2, #0
    29da:	9901      	ldr	r1, [sp, #4]
    29dc:	4308      	orrs	r0, r1
    29de:	d100      	bne.n	29e2 <__aeabi_dsub+0x5d2>
    29e0:	e548      	b.n	2474 <__aeabi_dsub+0x64>
    29e2:	1a68      	subs	r0, r5, r1
    29e4:	4684      	mov	ip, r0
    29e6:	4285      	cmp	r5, r0
    29e8:	4180      	sbcs	r0, r0
    29ea:	1abe      	subs	r6, r7, r2
    29ec:	4240      	negs	r0, r0
    29ee:	1a30      	subs	r0, r6, r0
    29f0:	0206      	lsls	r6, r0, #8
    29f2:	d400      	bmi.n	29f6 <__aeabi_dsub+0x5e6>
    29f4:	e647      	b.n	2686 <__aeabi_dsub+0x276>
    29f6:	468c      	mov	ip, r1
    29f8:	1b4d      	subs	r5, r1, r5
    29fa:	45ac      	cmp	ip, r5
    29fc:	4189      	sbcs	r1, r1
    29fe:	1bd2      	subs	r2, r2, r7
    2a00:	4249      	negs	r1, r1
    2a02:	1a57      	subs	r7, r2, r1
    2a04:	4698      	mov	r8, r3
    2a06:	e535      	b.n	2474 <__aeabi_dsub+0x64>
    2a08:	1c10      	adds	r0, r2, #0
    2a0a:	9901      	ldr	r1, [sp, #4]
    2a0c:	4308      	orrs	r0, r1
    2a0e:	d034      	beq.n	2a7a <__aeabi_dsub+0x66a>
    2a10:	2480      	movs	r4, #128	; 0x80
    2a12:	0778      	lsls	r0, r7, #29
    2a14:	08ed      	lsrs	r5, r5, #3
    2a16:	08ff      	lsrs	r7, r7, #3
    2a18:	0324      	lsls	r4, r4, #12
    2a1a:	4328      	orrs	r0, r5
    2a1c:	4227      	tst	r7, r4
    2a1e:	d008      	beq.n	2a32 <__aeabi_dsub+0x622>
    2a20:	08d6      	lsrs	r6, r2, #3
    2a22:	4226      	tst	r6, r4
    2a24:	d105      	bne.n	2a32 <__aeabi_dsub+0x622>
    2a26:	08c9      	lsrs	r1, r1, #3
    2a28:	0752      	lsls	r2, r2, #29
    2a2a:	430a      	orrs	r2, r1
    2a2c:	1c10      	adds	r0, r2, #0
    2a2e:	1c37      	adds	r7, r6, #0
    2a30:	4698      	mov	r8, r3
    2a32:	00ff      	lsls	r7, r7, #3
    2a34:	0f42      	lsrs	r2, r0, #29
    2a36:	4317      	orrs	r7, r2
    2a38:	00c5      	lsls	r5, r0, #3
    2a3a:	4c24      	ldr	r4, [pc, #144]	; (2acc <__aeabi_dsub+0x6bc>)
    2a3c:	e51a      	b.n	2474 <__aeabi_dsub+0x64>
    2a3e:	4c23      	ldr	r4, [pc, #140]	; (2acc <__aeabi_dsub+0x6bc>)
    2a40:	42a0      	cmp	r0, r4
    2a42:	d1a2      	bne.n	298a <__aeabi_dsub+0x57a>
    2a44:	1c17      	adds	r7, r2, #0
    2a46:	9d01      	ldr	r5, [sp, #4]
    2a48:	1c04      	adds	r4, r0, #0
    2a4a:	e513      	b.n	2474 <__aeabi_dsub+0x64>
    2a4c:	2b00      	cmp	r3, #0
    2a4e:	d035      	beq.n	2abc <__aeabi_dsub+0x6ac>
    2a50:	1c13      	adds	r3, r2, #0
    2a52:	9901      	ldr	r1, [sp, #4]
    2a54:	430b      	orrs	r3, r1
    2a56:	d010      	beq.n	2a7a <__aeabi_dsub+0x66a>
    2a58:	2480      	movs	r4, #128	; 0x80
    2a5a:	0778      	lsls	r0, r7, #29
    2a5c:	08ed      	lsrs	r5, r5, #3
    2a5e:	08ff      	lsrs	r7, r7, #3
    2a60:	0324      	lsls	r4, r4, #12
    2a62:	4328      	orrs	r0, r5
    2a64:	4227      	tst	r7, r4
    2a66:	d0e4      	beq.n	2a32 <__aeabi_dsub+0x622>
    2a68:	08d3      	lsrs	r3, r2, #3
    2a6a:	4223      	tst	r3, r4
    2a6c:	d1e1      	bne.n	2a32 <__aeabi_dsub+0x622>
    2a6e:	08c9      	lsrs	r1, r1, #3
    2a70:	0752      	lsls	r2, r2, #29
    2a72:	430a      	orrs	r2, r1
    2a74:	1c10      	adds	r0, r2, #0
    2a76:	1c1f      	adds	r7, r3, #0
    2a78:	e7db      	b.n	2a32 <__aeabi_dsub+0x622>
    2a7a:	4c14      	ldr	r4, [pc, #80]	; (2acc <__aeabi_dsub+0x6bc>)
    2a7c:	e4fa      	b.n	2474 <__aeabi_dsub+0x64>
    2a7e:	2200      	movs	r2, #0
    2a80:	e73f      	b.n	2902 <__aeabi_dsub+0x4f2>
    2a82:	464c      	mov	r4, r9
    2a84:	1c3e      	adds	r6, r7, #0
    2a86:	3c20      	subs	r4, #32
    2a88:	40e6      	lsrs	r6, r4
    2a8a:	4649      	mov	r1, r9
    2a8c:	1c34      	adds	r4, r6, #0
    2a8e:	2920      	cmp	r1, #32
    2a90:	d032      	beq.n	2af8 <__aeabi_dsub+0x6e8>
    2a92:	2640      	movs	r6, #64	; 0x40
    2a94:	1a76      	subs	r6, r6, r1
    2a96:	40b7      	lsls	r7, r6
    2a98:	433d      	orrs	r5, r7
    2a9a:	1e6f      	subs	r7, r5, #1
    2a9c:	41bd      	sbcs	r5, r7
    2a9e:	2700      	movs	r7, #0
    2aa0:	4325      	orrs	r5, r4
    2aa2:	e6a8      	b.n	27f6 <__aeabi_dsub+0x3e6>
    2aa4:	2780      	movs	r7, #128	; 0x80
    2aa6:	2600      	movs	r6, #0
    2aa8:	03ff      	lsls	r7, r7, #15
    2aaa:	4c08      	ldr	r4, [pc, #32]	; (2acc <__aeabi_dsub+0x6bc>)
    2aac:	2500      	movs	r5, #0
    2aae:	e57c      	b.n	25aa <__aeabi_dsub+0x19a>
    2ab0:	433d      	orrs	r5, r7
    2ab2:	1e6f      	subs	r7, r5, #1
    2ab4:	41bd      	sbcs	r5, r7
    2ab6:	2700      	movs	r7, #0
    2ab8:	b2ed      	uxtb	r5, r5
    2aba:	e783      	b.n	29c4 <__aeabi_dsub+0x5b4>
    2abc:	1c17      	adds	r7, r2, #0
    2abe:	9d01      	ldr	r5, [sp, #4]
    2ac0:	4c02      	ldr	r4, [pc, #8]	; (2acc <__aeabi_dsub+0x6bc>)
    2ac2:	e4d7      	b.n	2474 <__aeabi_dsub+0x64>
    2ac4:	1c17      	adds	r7, r2, #0
    2ac6:	9d01      	ldr	r5, [sp, #4]
    2ac8:	e4d4      	b.n	2474 <__aeabi_dsub+0x64>
    2aca:	46c0      	nop			; (mov r8, r8)
    2acc:	000007ff 	.word	0x000007ff
    2ad0:	ff7fffff 	.word	0xff7fffff
    2ad4:	4654      	mov	r4, sl
    2ad6:	1c3b      	adds	r3, r7, #0
    2ad8:	3c20      	subs	r4, #32
    2ada:	40e3      	lsrs	r3, r4
    2adc:	1c1c      	adds	r4, r3, #0
    2ade:	4653      	mov	r3, sl
    2ae0:	2b20      	cmp	r3, #32
    2ae2:	d00d      	beq.n	2b00 <__aeabi_dsub+0x6f0>
    2ae4:	2340      	movs	r3, #64	; 0x40
    2ae6:	4651      	mov	r1, sl
    2ae8:	1a5b      	subs	r3, r3, r1
    2aea:	409f      	lsls	r7, r3
    2aec:	433d      	orrs	r5, r7
    2aee:	1e6f      	subs	r7, r5, #1
    2af0:	41bd      	sbcs	r5, r7
    2af2:	2700      	movs	r7, #0
    2af4:	4325      	orrs	r5, r4
    2af6:	e765      	b.n	29c4 <__aeabi_dsub+0x5b4>
    2af8:	2700      	movs	r7, #0
    2afa:	e7cd      	b.n	2a98 <__aeabi_dsub+0x688>
    2afc:	1c0d      	adds	r5, r1, #0
    2afe:	e5c8      	b.n	2692 <__aeabi_dsub+0x282>
    2b00:	2700      	movs	r7, #0
    2b02:	e7f3      	b.n	2aec <__aeabi_dsub+0x6dc>

00002b04 <__aeabi_d2iz>:
    2b04:	030b      	lsls	r3, r1, #12
    2b06:	b530      	push	{r4, r5, lr}
    2b08:	4c13      	ldr	r4, [pc, #76]	; (2b58 <__aeabi_d2iz+0x54>)
    2b0a:	0b1a      	lsrs	r2, r3, #12
    2b0c:	004b      	lsls	r3, r1, #1
    2b0e:	1c05      	adds	r5, r0, #0
    2b10:	0d5b      	lsrs	r3, r3, #21
    2b12:	0fc9      	lsrs	r1, r1, #31
    2b14:	2000      	movs	r0, #0
    2b16:	42a3      	cmp	r3, r4
    2b18:	dd10      	ble.n	2b3c <__aeabi_d2iz+0x38>
    2b1a:	4810      	ldr	r0, [pc, #64]	; (2b5c <__aeabi_d2iz+0x58>)
    2b1c:	4283      	cmp	r3, r0
    2b1e:	dc0e      	bgt.n	2b3e <__aeabi_d2iz+0x3a>
    2b20:	2080      	movs	r0, #128	; 0x80
    2b22:	4c0f      	ldr	r4, [pc, #60]	; (2b60 <__aeabi_d2iz+0x5c>)
    2b24:	0340      	lsls	r0, r0, #13
    2b26:	4302      	orrs	r2, r0
    2b28:	1ae4      	subs	r4, r4, r3
    2b2a:	2c1f      	cmp	r4, #31
    2b2c:	dd0a      	ble.n	2b44 <__aeabi_d2iz+0x40>
    2b2e:	480d      	ldr	r0, [pc, #52]	; (2b64 <__aeabi_d2iz+0x60>)
    2b30:	1ac3      	subs	r3, r0, r3
    2b32:	40da      	lsrs	r2, r3
    2b34:	1c13      	adds	r3, r2, #0
    2b36:	4248      	negs	r0, r1
    2b38:	4043      	eors	r3, r0
    2b3a:	1858      	adds	r0, r3, r1
    2b3c:	bd30      	pop	{r4, r5, pc}
    2b3e:	4b0a      	ldr	r3, [pc, #40]	; (2b68 <__aeabi_d2iz+0x64>)
    2b40:	18c8      	adds	r0, r1, r3
    2b42:	e7fb      	b.n	2b3c <__aeabi_d2iz+0x38>
    2b44:	1c28      	adds	r0, r5, #0
    2b46:	40e0      	lsrs	r0, r4
    2b48:	4c08      	ldr	r4, [pc, #32]	; (2b6c <__aeabi_d2iz+0x68>)
    2b4a:	46a4      	mov	ip, r4
    2b4c:	4463      	add	r3, ip
    2b4e:	409a      	lsls	r2, r3
    2b50:	1c13      	adds	r3, r2, #0
    2b52:	4303      	orrs	r3, r0
    2b54:	e7ef      	b.n	2b36 <__aeabi_d2iz+0x32>
    2b56:	46c0      	nop			; (mov r8, r8)
    2b58:	000003fe 	.word	0x000003fe
    2b5c:	0000041d 	.word	0x0000041d
    2b60:	00000433 	.word	0x00000433
    2b64:	00000413 	.word	0x00000413
    2b68:	7fffffff 	.word	0x7fffffff
    2b6c:	fffffbed 	.word	0xfffffbed

00002b70 <__aeabi_i2d>:
    2b70:	b538      	push	{r3, r4, r5, lr}
    2b72:	1e04      	subs	r4, r0, #0
    2b74:	d016      	beq.n	2ba4 <__aeabi_i2d+0x34>
    2b76:	0fc5      	lsrs	r5, r0, #31
    2b78:	d000      	beq.n	2b7c <__aeabi_i2d+0xc>
    2b7a:	4244      	negs	r4, r0
    2b7c:	1c20      	adds	r0, r4, #0
    2b7e:	f000 f833 	bl	2be8 <__clzsi2>
    2b82:	4b17      	ldr	r3, [pc, #92]	; (2be0 <__aeabi_i2d+0x70>)
    2b84:	1a1b      	subs	r3, r3, r0
    2b86:	280a      	cmp	r0, #10
    2b88:	dc21      	bgt.n	2bce <__aeabi_i2d+0x5e>
    2b8a:	1c02      	adds	r2, r0, #0
    2b8c:	1c21      	adds	r1, r4, #0
    2b8e:	3215      	adds	r2, #21
    2b90:	4091      	lsls	r1, r2
    2b92:	1c0a      	adds	r2, r1, #0
    2b94:	210b      	movs	r1, #11
    2b96:	1a08      	subs	r0, r1, r0
    2b98:	40c4      	lsrs	r4, r0
    2b9a:	055b      	lsls	r3, r3, #21
    2b9c:	0324      	lsls	r4, r4, #12
    2b9e:	0b24      	lsrs	r4, r4, #12
    2ba0:	0d5b      	lsrs	r3, r3, #21
    2ba2:	e003      	b.n	2bac <__aeabi_i2d+0x3c>
    2ba4:	2500      	movs	r5, #0
    2ba6:	2300      	movs	r3, #0
    2ba8:	2400      	movs	r4, #0
    2baa:	2200      	movs	r2, #0
    2bac:	2100      	movs	r1, #0
    2bae:	1c10      	adds	r0, r2, #0
    2bb0:	0324      	lsls	r4, r4, #12
    2bb2:	0d0a      	lsrs	r2, r1, #20
    2bb4:	0512      	lsls	r2, r2, #20
    2bb6:	0b24      	lsrs	r4, r4, #12
    2bb8:	4314      	orrs	r4, r2
    2bba:	4a0a      	ldr	r2, [pc, #40]	; (2be4 <__aeabi_i2d+0x74>)
    2bbc:	051b      	lsls	r3, r3, #20
    2bbe:	4014      	ands	r4, r2
    2bc0:	431c      	orrs	r4, r3
    2bc2:	0064      	lsls	r4, r4, #1
    2bc4:	07ed      	lsls	r5, r5, #31
    2bc6:	0864      	lsrs	r4, r4, #1
    2bc8:	432c      	orrs	r4, r5
    2bca:	1c21      	adds	r1, r4, #0
    2bcc:	bd38      	pop	{r3, r4, r5, pc}
    2bce:	380b      	subs	r0, #11
    2bd0:	4084      	lsls	r4, r0
    2bd2:	055b      	lsls	r3, r3, #21
    2bd4:	0324      	lsls	r4, r4, #12
    2bd6:	0b24      	lsrs	r4, r4, #12
    2bd8:	0d5b      	lsrs	r3, r3, #21
    2bda:	2200      	movs	r2, #0
    2bdc:	e7e6      	b.n	2bac <__aeabi_i2d+0x3c>
    2bde:	46c0      	nop			; (mov r8, r8)
    2be0:	0000041e 	.word	0x0000041e
    2be4:	800fffff 	.word	0x800fffff

00002be8 <__clzsi2>:
    2be8:	211c      	movs	r1, #28
    2bea:	2301      	movs	r3, #1
    2bec:	041b      	lsls	r3, r3, #16
    2bee:	4298      	cmp	r0, r3
    2bf0:	d301      	bcc.n	2bf6 <__clzsi2+0xe>
    2bf2:	0c00      	lsrs	r0, r0, #16
    2bf4:	3910      	subs	r1, #16
    2bf6:	0a1b      	lsrs	r3, r3, #8
    2bf8:	4298      	cmp	r0, r3
    2bfa:	d301      	bcc.n	2c00 <__clzsi2+0x18>
    2bfc:	0a00      	lsrs	r0, r0, #8
    2bfe:	3908      	subs	r1, #8
    2c00:	091b      	lsrs	r3, r3, #4
    2c02:	4298      	cmp	r0, r3
    2c04:	d301      	bcc.n	2c0a <__clzsi2+0x22>
    2c06:	0900      	lsrs	r0, r0, #4
    2c08:	3904      	subs	r1, #4
    2c0a:	a202      	add	r2, pc, #8	; (adr r2, 2c14 <__clzsi2+0x2c>)
    2c0c:	5c10      	ldrb	r0, [r2, r0]
    2c0e:	1840      	adds	r0, r0, r1
    2c10:	4770      	bx	lr
    2c12:	46c0      	nop			; (mov r8, r8)
    2c14:	02020304 	.word	0x02020304
    2c18:	01010101 	.word	0x01010101
	...

00002c24 <npio2_hw>:
    2c24:	3ff921fb 400921fb 4012d97c 401921fb     .!.?.!.@|..@.!.@
    2c34:	401f6a7a 4022d97c 4025fdbb 402921fb     zj.@|."@..%@.!)@
    2c44:	402c463a 402f6a7a 4031475c 4032d97c     :F,@zj/@\G1@|.2@
    2c54:	40346b9c 4035fdbb 40378fdb 403921fb     .k4@..5@..7@.!9@
    2c64:	403ab41b 403c463a 403dd85a 403f6a7a     ..:@:F<@Z.=@zj?@
    2c74:	40407e4c 4041475c 4042106c 4042d97c     L~@@\GA@l.B@|.B@
    2c84:	4043a28c 40446b9c 404534ac 4045fdbb     ..C@.kD@.4E@..E@
    2c94:	4046c6cb 40478fdb 404858eb 404921fb     ..F@..G@.XH@.!I@

00002ca4 <two_over_pi>:
    2ca4:	00a2f983 006e4e44 001529fc 002757d1     ....DNn..)...W'.
    2cb4:	00f534dd 00c0db62 0095993c 00439041     .4..b...<...A.C.
    2cc4:	00fe5163 00abdebb 00c561b7 00246e3a     cQ.......a..:n$.
    2cd4:	00424dd2 00e00649 002eea09 00d1921c     .MB.I...........
    2ce4:	00fe1deb 001cb129 00a73ee8 008235f5     ....)....>...5..
    2cf4:	002ebb44 0084e99c 007026b4 005f7e41     D........&p.A~_.
    2d04:	003991d6 00398353 0039f49c 00845f8b     ..9.S.9...9.._..
    2d14:	00bdf928 003b1ff8 0097ffde 0005980f     (.....;.........
    2d24:	00ef2f11 008b5a0a 006d1f6d 00367ecf     ./...Z..m.m..~6.
    2d34:	0027cb09 00b74f46 003f669e 005fea2d     ..'.FO...f?.-._.
    2d44:	007527ba 00c7ebe5 00f17b3d 000739f7     .'u.....={...9..
    2d54:	008a5292 00ea6bfb 005fb11f 008d5d08     .R...k...._..]..
    2d64:	00560330 0046fc7b 006babf0 00cfbc20     0.V.{.F...k. ...
    2d74:	009af436 001da9e3 0091615e 00e61b08     6.......^a......
    2d84:	00659985 005f14a0 0068408d 00ffd880     ..e..._..@h.....
    2d94:	004d7327 00310606 001556ca 0073a8c9     'sM...1..V....s.
    2da4:	0060e27b 00c08c6b                       {.`.k...

00002dac <init_jk>:
    2dac:	00000002 00000003 00000004 00000006     ................
    2dbc:	00000000                                ....

00002dc0 <PIo2>:
    2dc0:	40000000 3ff921fb 00000000 3e74442d     ...@.!.?....-Dt>
    2dd0:	80000000 3cf84698 60000000 3b78cc51     .....F.<...`Q.x;
    2de0:	80000000 39f01b83 40000000 387a2520     .......9...@ %z8
    2df0:	80000000 36e38222 00000000 3569f31d     ...."..6......i5
    2e00:	000020c8 000020a6 000020a6 0000209a     . ... ... ... ..
    2e10:	00001f8e 00001f8e 0000208e 0000209a     ......... ... ..
    2e20:	00001f8e 0000208e 00001f8e 0000209a     ..... ....... ..
    2e30:	00001f92 00001f92 00001f92 000022a8     ............."..
