
main.elf:     file format elf32-littlearm


Disassembly of section .text:

00000000 <__text_start>:
   0:	10000408 	.word	0x10000408
   4:	000001c5 	.word	0x000001c5
	...

00000020 <pin_configure_as_output>:
  20:	b510      	push	{r4, lr}
  22:	2804      	cmp	r0, #4
  24:	dc01      	bgt.n	2a <pin_configure_as_output+0xa>
  26:	2909      	cmp	r1, #9
  28:	dd05      	ble.n	36 <pin_configure_as_output+0x16>
  2a:	4b09      	ldr	r3, [pc, #36]	; (50 <pin_configure_as_output+0x30>)
  2c:	2202      	movs	r2, #2
  2e:	6819      	ldr	r1, [r3, #0]
  30:	430a      	orrs	r2, r1
  32:	601a      	str	r2, [r3, #0]
  34:	e00b      	b.n	4e <pin_configure_as_output+0x2e>
  36:	22a0      	movs	r2, #160	; 0xa0
  38:	05d2      	lsls	r2, r2, #23
  3a:	0400      	lsls	r0, r0, #16
  3c:	2380      	movs	r3, #128	; 0x80
  3e:	1880      	adds	r0, r0, r2
  40:	021b      	lsls	r3, r3, #8
  42:	2401      	movs	r4, #1
  44:	58c2      	ldr	r2, [r0, r3]
  46:	408c      	lsls	r4, r1
  48:	1c21      	adds	r1, r4, #0
  4a:	4311      	orrs	r1, r2
  4c:	50c1      	str	r1, [r0, r3]
  4e:	bd10      	pop	{r4, pc}
  50:	10000000 	.word	0x10000000

00000054 <pin_set>:
  54:	b510      	push	{r4, lr}
  56:	2804      	cmp	r0, #4
  58:	dc03      	bgt.n	62 <pin_set+0xe>
  5a:	2909      	cmp	r1, #9
  5c:	dc01      	bgt.n	62 <pin_set+0xe>
  5e:	2a01      	cmp	r2, #1
  60:	d905      	bls.n	6e <pin_set+0x1a>
  62:	4b0e      	ldr	r3, [pc, #56]	; (9c <pin_set+0x48>)
  64:	2204      	movs	r2, #4
  66:	6819      	ldr	r1, [r3, #0]
  68:	430a      	orrs	r2, r1
  6a:	601a      	str	r2, [r3, #0]
  6c:	e014      	b.n	98 <pin_set+0x44>
  6e:	0400      	lsls	r0, r0, #16
  70:	4b0b      	ldr	r3, [pc, #44]	; (a0 <pin_set+0x4c>)
  72:	2a01      	cmp	r2, #1
  74:	d108      	bne.n	88 <pin_set+0x34>
  76:	24a0      	movs	r4, #160	; 0xa0
  78:	05e4      	lsls	r4, r4, #23
  7a:	1900      	adds	r0, r0, r4
  7c:	58c4      	ldr	r4, [r0, r3]
  7e:	408a      	lsls	r2, r1
  80:	1c11      	adds	r1, r2, #0
  82:	4321      	orrs	r1, r4
  84:	50c1      	str	r1, [r0, r3]
  86:	e007      	b.n	98 <pin_set+0x44>
  88:	22a0      	movs	r2, #160	; 0xa0
  8a:	05d2      	lsls	r2, r2, #23
  8c:	1880      	adds	r0, r0, r2
  8e:	58c2      	ldr	r2, [r0, r3]
  90:	2401      	movs	r4, #1
  92:	408c      	lsls	r4, r1
  94:	43a2      	bics	r2, r4
  96:	50c2      	str	r2, [r0, r3]
  98:	bd10      	pop	{r4, pc}
  9a:	46c0      	nop			; (mov r8, r8)
  9c:	10000000 	.word	0x10000000
  a0:	00003ffc 	.word	0x00003ffc

000000a4 <disable_others>:
  a4:	b510      	push	{r4, lr}
  a6:	2404      	movs	r4, #4
  a8:	2000      	movs	r0, #0
  aa:	1c21      	adds	r1, r4, #0
  ac:	1c02      	adds	r2, r0, #0
  ae:	3401      	adds	r4, #1
  b0:	f7ff ffd0 	bl	54 <pin_set>
  b4:	2c08      	cmp	r4, #8
  b6:	d1f7      	bne.n	a8 <disable_others+0x4>
  b8:	2001      	movs	r0, #1
  ba:	2104      	movs	r1, #4
  bc:	2200      	movs	r2, #0
  be:	f7ff ffc9 	bl	54 <pin_set>
  c2:	2001      	movs	r0, #1
  c4:	2105      	movs	r1, #5
  c6:	2200      	movs	r2, #0
  c8:	f7ff ffc4 	bl	54 <pin_set>
  cc:	1c21      	adds	r1, r4, #0
  ce:	2001      	movs	r0, #1
  d0:	2200      	movs	r2, #0
  d2:	f7ff ffbf 	bl	54 <pin_set>
  d6:	2001      	movs	r0, #1
  d8:	2109      	movs	r1, #9
  da:	2200      	movs	r2, #0
  dc:	f7ff ffba 	bl	54 <pin_set>
  e0:	bd10      	pop	{r4, pc}
	...

000000e4 <main>:
  e4:	b537      	push	{r0, r1, r2, r4, r5, lr}
  e6:	2404      	movs	r4, #4
  e8:	1c21      	adds	r1, r4, #0
  ea:	2000      	movs	r0, #0
  ec:	3401      	adds	r4, #1
  ee:	f7ff ff97 	bl	20 <pin_configure_as_output>
  f2:	2c08      	cmp	r4, #8
  f4:	d1f8      	bne.n	e8 <main+0x4>
  f6:	2001      	movs	r0, #1
  f8:	2104      	movs	r1, #4
  fa:	f7ff ff91 	bl	20 <pin_configure_as_output>
  fe:	2001      	movs	r0, #1
 100:	2105      	movs	r1, #5
 102:	f7ff ff8d 	bl	20 <pin_configure_as_output>
 106:	2001      	movs	r0, #1
 108:	1c21      	adds	r1, r4, #0
 10a:	f7ff ff89 	bl	20 <pin_configure_as_output>
 10e:	2001      	movs	r0, #1
 110:	2109      	movs	r1, #9
 112:	f7ff ff85 	bl	20 <pin_configure_as_output>
 116:	2504      	movs	r5, #4
 118:	4c29      	ldr	r4, [pc, #164]	; (1c0 <main+0xdc>)
 11a:	2d07      	cmp	r5, #7
 11c:	dc18      	bgt.n	150 <main+0x6c>
 11e:	2300      	movs	r3, #0
 120:	9301      	str	r3, [sp, #4]
 122:	9b01      	ldr	r3, [sp, #4]
 124:	42a3      	cmp	r3, r4
 126:	dc02      	bgt.n	12e <main+0x4a>
 128:	9b01      	ldr	r3, [sp, #4]
 12a:	3301      	adds	r3, #1
 12c:	e7f8      	b.n	120 <main+0x3c>
 12e:	f7ff ffb9 	bl	a4 <disable_others>
 132:	2000      	movs	r0, #0
 134:	1c29      	adds	r1, r5, #0
 136:	2201      	movs	r2, #1
 138:	f7ff ff8c 	bl	54 <pin_set>
 13c:	2300      	movs	r3, #0
 13e:	9301      	str	r3, [sp, #4]
 140:	9b01      	ldr	r3, [sp, #4]
 142:	42a3      	cmp	r3, r4
 144:	dc02      	bgt.n	14c <main+0x68>
 146:	9b01      	ldr	r3, [sp, #4]
 148:	3301      	adds	r3, #1
 14a:	e7f8      	b.n	13e <main+0x5a>
 14c:	3501      	adds	r5, #1
 14e:	e7e3      	b.n	118 <main+0x34>
 150:	2504      	movs	r5, #4
 152:	2300      	movs	r3, #0
 154:	9301      	str	r3, [sp, #4]
 156:	9b01      	ldr	r3, [sp, #4]
 158:	42a3      	cmp	r3, r4
 15a:	dc02      	bgt.n	162 <main+0x7e>
 15c:	9b01      	ldr	r3, [sp, #4]
 15e:	3301      	adds	r3, #1
 160:	e7f8      	b.n	154 <main+0x70>
 162:	f7ff ff9f 	bl	a4 <disable_others>
 166:	2001      	movs	r0, #1
 168:	1c29      	adds	r1, r5, #0
 16a:	1c02      	adds	r2, r0, #0
 16c:	f7ff ff72 	bl	54 <pin_set>
 170:	2300      	movs	r3, #0
 172:	9301      	str	r3, [sp, #4]
 174:	9b01      	ldr	r3, [sp, #4]
 176:	42a3      	cmp	r3, r4
 178:	dc02      	bgt.n	180 <main+0x9c>
 17a:	9b01      	ldr	r3, [sp, #4]
 17c:	3301      	adds	r3, #1
 17e:	e7f8      	b.n	172 <main+0x8e>
 180:	3501      	adds	r5, #1
 182:	2d06      	cmp	r5, #6
 184:	d1e5      	bne.n	152 <main+0x6e>
 186:	2508      	movs	r5, #8
 188:	2300      	movs	r3, #0
 18a:	9301      	str	r3, [sp, #4]
 18c:	9b01      	ldr	r3, [sp, #4]
 18e:	42a3      	cmp	r3, r4
 190:	dc02      	bgt.n	198 <main+0xb4>
 192:	9b01      	ldr	r3, [sp, #4]
 194:	3301      	adds	r3, #1
 196:	e7f8      	b.n	18a <main+0xa6>
 198:	f7ff ff84 	bl	a4 <disable_others>
 19c:	2001      	movs	r0, #1
 19e:	1c29      	adds	r1, r5, #0
 1a0:	1c02      	adds	r2, r0, #0
 1a2:	f7ff ff57 	bl	54 <pin_set>
 1a6:	2300      	movs	r3, #0
 1a8:	9301      	str	r3, [sp, #4]
 1aa:	9b01      	ldr	r3, [sp, #4]
 1ac:	42a3      	cmp	r3, r4
 1ae:	dc02      	bgt.n	1b6 <main+0xd2>
 1b0:	9b01      	ldr	r3, [sp, #4]
 1b2:	3301      	adds	r3, #1
 1b4:	e7f8      	b.n	1a8 <main+0xc4>
 1b6:	3501      	adds	r5, #1
 1b8:	2d0a      	cmp	r5, #10
 1ba:	d1e5      	bne.n	188 <main+0xa4>
 1bc:	e7ab      	b.n	116 <main+0x32>
 1be:	46c0      	nop			; (mov r8, r8)
 1c0:	00009c3f 	.word	0x00009c3f

000001c4 <__startup>:
 1c4:	b510      	push	{r4, lr}
 1c6:	4b0f      	ldr	r3, [pc, #60]	; (204 <__startup+0x40>)
 1c8:	4a0f      	ldr	r2, [pc, #60]	; (208 <__startup+0x44>)
 1ca:	1d19      	adds	r1, r3, #4
 1cc:	3b04      	subs	r3, #4
 1ce:	4293      	cmp	r3, r2
 1d0:	d003      	beq.n	1da <__startup+0x16>
 1d2:	2200      	movs	r2, #0
 1d4:	601a      	str	r2, [r3, #0]
 1d6:	1c0b      	adds	r3, r1, #0
 1d8:	e7f6      	b.n	1c8 <__startup+0x4>
 1da:	4a0c      	ldr	r2, [pc, #48]	; (20c <__startup+0x48>)
 1dc:	490c      	ldr	r1, [pc, #48]	; (210 <__startup+0x4c>)
 1de:	2300      	movs	r3, #0
 1e0:	1a89      	subs	r1, r1, r2
 1e2:	0889      	lsrs	r1, r1, #2
 1e4:	3101      	adds	r1, #1
 1e6:	0089      	lsls	r1, r1, #2
 1e8:	3304      	adds	r3, #4
 1ea:	428b      	cmp	r3, r1
 1ec:	d007      	beq.n	1fe <__startup+0x3a>
 1ee:	4c09      	ldr	r4, [pc, #36]	; (214 <__startup+0x50>)
 1f0:	18d0      	adds	r0, r2, r3
 1f2:	191c      	adds	r4, r3, r4
 1f4:	3c04      	subs	r4, #4
 1f6:	6824      	ldr	r4, [r4, #0]
 1f8:	3804      	subs	r0, #4
 1fa:	6004      	str	r4, [r0, #0]
 1fc:	e7f4      	b.n	1e8 <__startup+0x24>
 1fe:	f7ff ff71 	bl	e4 <main>
 202:	e7fe      	b.n	202 <__startup+0x3e>
 204:	10000004 	.word	0x10000004
 208:	10000004 	.word	0x10000004
 20c:	10000000 	.word	0x10000000
 210:	10000000 	.word	0x10000000
 214:	00000218 	.word	0x00000218
