
main.elf:     file format elf32-littlearm


Disassembly of section .text:

00000000 <__text_start>:
   0:	10000408 	.word	0x10000408
   4:	00000161 	.word	0x00000161
	...

00000020 <pin_configure_as_output>:
  20:	b510      	push	{r4, lr}
  22:	2804      	cmp	r0, #4
  24:	dc01      	bgt.n	2a <pin_configure_as_output+0xa>
  26:	2909      	cmp	r1, #9
  28:	dd05      	ble.n	36 <pin_configure_as_output+0x16>
  2a:	4b09      	ldr	r3, [pc, #36]	; (50 <pin_configure_as_output+0x30>)
  2c:	2202      	movs	r2, #2
  2e:	6819      	ldr	r1, [r3, #0]
  30:	430a      	orrs	r2, r1
  32:	601a      	str	r2, [r3, #0]
  34:	e00b      	b.n	4e <pin_configure_as_output+0x2e>
  36:	22a0      	movs	r2, #160	; 0xa0
  38:	05d2      	lsls	r2, r2, #23
  3a:	0400      	lsls	r0, r0, #16
  3c:	2380      	movs	r3, #128	; 0x80
  3e:	1880      	adds	r0, r0, r2
  40:	021b      	lsls	r3, r3, #8
  42:	2401      	movs	r4, #1
  44:	58c2      	ldr	r2, [r0, r3]
  46:	408c      	lsls	r4, r1
  48:	1c21      	adds	r1, r4, #0
  4a:	4311      	orrs	r1, r2
  4c:	50c1      	str	r1, [r0, r3]
  4e:	bd10      	pop	{r4, pc}
  50:	10000000 	.word	0x10000000

00000054 <pin_set>:
  54:	b510      	push	{r4, lr}
  56:	2804      	cmp	r0, #4
  58:	dc03      	bgt.n	62 <pin_set+0xe>
  5a:	2909      	cmp	r1, #9
  5c:	dc01      	bgt.n	62 <pin_set+0xe>
  5e:	2a01      	cmp	r2, #1
  60:	d905      	bls.n	6e <pin_set+0x1a>
  62:	4b0e      	ldr	r3, [pc, #56]	; (9c <pin_set+0x48>)
  64:	2204      	movs	r2, #4
  66:	6819      	ldr	r1, [r3, #0]
  68:	430a      	orrs	r2, r1
  6a:	601a      	str	r2, [r3, #0]
  6c:	e014      	b.n	98 <pin_set+0x44>
  6e:	0400      	lsls	r0, r0, #16
  70:	4b0b      	ldr	r3, [pc, #44]	; (a0 <pin_set+0x4c>)
  72:	2a01      	cmp	r2, #1
  74:	d108      	bne.n	88 <pin_set+0x34>
  76:	24a0      	movs	r4, #160	; 0xa0
  78:	05e4      	lsls	r4, r4, #23
  7a:	1900      	adds	r0, r0, r4
  7c:	58c4      	ldr	r4, [r0, r3]
  7e:	408a      	lsls	r2, r1
  80:	1c11      	adds	r1, r2, #0
  82:	4321      	orrs	r1, r4
  84:	50c1      	str	r1, [r0, r3]
  86:	e007      	b.n	98 <pin_set+0x44>
  88:	22a0      	movs	r2, #160	; 0xa0
  8a:	05d2      	lsls	r2, r2, #23
  8c:	1880      	adds	r0, r0, r2
  8e:	58c2      	ldr	r2, [r0, r3]
  90:	2401      	movs	r4, #1
  92:	408c      	lsls	r4, r1
  94:	43a2      	bics	r2, r4
  96:	50c2      	str	r2, [r0, r3]
  98:	bd10      	pop	{r4, pc}
  9a:	46c0      	nop			; (mov r8, r8)
  9c:	10000000 	.word	0x10000000
  a0:	00003ffc 	.word	0x00003ffc

000000a4 <timer_init>:
  a4:	4b07      	ldr	r3, [pc, #28]	; (c4 <timer_init+0x20>)
  a6:	2280      	movs	r2, #128	; 0x80
  a8:	6fd9      	ldr	r1, [r3, #124]	; 0x7c
  aa:	0092      	lsls	r2, r2, #2
  ac:	430a      	orrs	r2, r1
  ae:	67da      	str	r2, [r3, #124]	; 0x7c
  b0:	4b05      	ldr	r3, [pc, #20]	; (c8 <timer_init+0x24>)
  b2:	2200      	movs	r2, #0
  b4:	210b      	movs	r1, #11
  b6:	671a      	str	r2, [r3, #112]	; 0x70
  b8:	60d9      	str	r1, [r3, #12]
  ba:	609a      	str	r2, [r3, #8]
  bc:	2201      	movs	r2, #1
  be:	605a      	str	r2, [r3, #4]
  c0:	4770      	bx	lr
  c2:	46c0      	nop			; (mov r8, r8)
  c4:	40048004 	.word	0x40048004
  c8:	40014000 	.word	0x40014000

000000cc <now>:
  cc:	4b01      	ldr	r3, [pc, #4]	; (d4 <now+0x8>)
  ce:	6898      	ldr	r0, [r3, #8]
  d0:	4770      	bx	lr
  d2:	46c0      	nop			; (mov r8, r8)
  d4:	40014000 	.word	0x40014000

000000d8 <await>:
  d8:	4b02      	ldr	r3, [pc, #8]	; (e4 <await+0xc>)
  da:	689b      	ldr	r3, [r3, #8]
  dc:	4298      	cmp	r0, r3
  de:	d8fb      	bhi.n	d8 <await>
  e0:	4770      	bx	lr
  e2:	46c0      	nop			; (mov r8, r8)
  e4:	40014000 	.word	0x40014000

000000e8 <servo_init>:
  e8:	b538      	push	{r3, r4, r5, lr}
  ea:	1c05      	adds	r5, r0, #0
  ec:	1c0c      	adds	r4, r1, #0
  ee:	f7ff ff97 	bl	20 <pin_configure_as_output>
  f2:	1c28      	adds	r0, r5, #0
  f4:	1c21      	adds	r1, r4, #0
  f6:	2200      	movs	r2, #0
  f8:	f7ff ffac 	bl	54 <pin_set>
  fc:	bd38      	pop	{r3, r4, r5, pc}

000000fe <servo_pulse>:
  fe:	b570      	push	{r4, r5, r6, lr}
 100:	1c16      	adds	r6, r2, #0
 102:	2201      	movs	r2, #1
 104:	1c05      	adds	r5, r0, #0
 106:	1c0c      	adds	r4, r1, #0
 108:	f7ff ffa4 	bl	54 <pin_set>
 10c:	f7ff ffde 	bl	cc <now>
 110:	1980      	adds	r0, r0, r6
 112:	f7ff ffe1 	bl	d8 <await>
 116:	1c28      	adds	r0, r5, #0
 118:	1c21      	adds	r1, r4, #0
 11a:	2200      	movs	r2, #0
 11c:	f7ff ff9a 	bl	54 <pin_set>
 120:	bd70      	pop	{r4, r5, r6, pc}
	...

00000124 <main>:
 124:	b510      	push	{r4, lr}
 126:	2001      	movs	r0, #1
 128:	2105      	movs	r1, #5
 12a:	f7ff ffdd 	bl	e8 <servo_init>
 12e:	f7ff ffb9 	bl	a4 <timer_init>
 132:	2496      	movs	r4, #150	; 0x96
 134:	00a4      	lsls	r4, r4, #2
 136:	b2a2      	uxth	r2, r4
 138:	2105      	movs	r1, #5
 13a:	2001      	movs	r0, #1
 13c:	f7ff ffdf 	bl	fe <servo_pulse>
 140:	f7ff ffc4 	bl	cc <now>
 144:	4b04      	ldr	r3, [pc, #16]	; (158 <main+0x34>)
 146:	340a      	adds	r4, #10
 148:	18c0      	adds	r0, r0, r3
 14a:	f7ff ffc5 	bl	d8 <await>
 14e:	4b03      	ldr	r3, [pc, #12]	; (15c <main+0x38>)
 150:	429c      	cmp	r4, r3
 152:	d9f0      	bls.n	136 <main+0x12>
 154:	e7ed      	b.n	132 <main+0xe>
 156:	46c0      	nop			; (mov r8, r8)
 158:	000088b8 	.word	0x000088b8
 15c:	00000897 	.word	0x00000897

00000160 <__startup>:
 160:	b510      	push	{r4, lr}
 162:	4b0f      	ldr	r3, [pc, #60]	; (1a0 <__startup+0x40>)
 164:	4a0f      	ldr	r2, [pc, #60]	; (1a4 <__startup+0x44>)
 166:	1d19      	adds	r1, r3, #4
 168:	3b04      	subs	r3, #4
 16a:	4293      	cmp	r3, r2
 16c:	d003      	beq.n	176 <__startup+0x16>
 16e:	2200      	movs	r2, #0
 170:	601a      	str	r2, [r3, #0]
 172:	1c0b      	adds	r3, r1, #0
 174:	e7f6      	b.n	164 <__startup+0x4>
 176:	4a0c      	ldr	r2, [pc, #48]	; (1a8 <__startup+0x48>)
 178:	490c      	ldr	r1, [pc, #48]	; (1ac <__startup+0x4c>)
 17a:	2300      	movs	r3, #0
 17c:	1a89      	subs	r1, r1, r2
 17e:	0889      	lsrs	r1, r1, #2
 180:	3101      	adds	r1, #1
 182:	0089      	lsls	r1, r1, #2
 184:	3304      	adds	r3, #4
 186:	428b      	cmp	r3, r1
 188:	d007      	beq.n	19a <__startup+0x3a>
 18a:	4c09      	ldr	r4, [pc, #36]	; (1b0 <__startup+0x50>)
 18c:	18d0      	adds	r0, r2, r3
 18e:	191c      	adds	r4, r3, r4
 190:	3c04      	subs	r4, #4
 192:	6824      	ldr	r4, [r4, #0]
 194:	3804      	subs	r0, #4
 196:	6004      	str	r4, [r0, #0]
 198:	e7f4      	b.n	184 <__startup+0x24>
 19a:	f7ff ffc3 	bl	124 <main>
 19e:	e7fe      	b.n	19e <__startup+0x3e>
 1a0:	10000004 	.word	0x10000004
 1a4:	10000004 	.word	0x10000004
 1a8:	10000000 	.word	0x10000000
 1ac:	10000000 	.word	0x10000000
 1b0:	000001b4 	.word	0x000001b4
